(lp0
(dp1
S'secondly'
p2
I1
sS'todays'
p3
I1
sS'child'
p4
I7
sS'yellow'
p5
I3
sS'hitch'
p6
I3
sS'mansion'
p7
I1
sS'woody'
p8
I1
sS'oldest'
p9
I1
sS'minuscule'
p10
I1
sS'assembled'
p11
I1
sS'consider'
p12
I3
sS'whose'
p13
I3
sS'themes'
p14
I1
sS'paris'
p15
I2
sS'presents'
p16
I1
sS'bike'
p17
I1
sS'soused'
p18
I1
sS'lord'
p19
I1
sS'sorry'
p20
I3
sS'pride'
p21
I1
sS'worth'
p22
I4
sS'saves'
p23
I2
sS'rescue'
p24
I1
sS"martini's"
p25
I1
sS'audiences'
p26
I1
sS'definetly'
p27
I1
sS'every'
p28
I19
sS'suspenseful'
p29
I5
sS'affect'
p30
I1
sS'multiple'
p31
I1
sS'monkeys'
p32
I3
sS'school'
p33
I2
sS'pooled'
p34
I1
sS'crops'
p35
I2
sS'okies'
p36
I2
sS'red'
p37
I4
sS'deplorable'
p38
I1
sS'undercover'
p39
I1
sS'clothes'
p40
I1
sS'enjoy'
p41
I10
sS'force'
p42
I1
sS'leaders'
p43
I1
sS'tired'
p44
I5
sS'miller'
p45
I1
sS'bacon'
p46
I1
sS'direct'
p47
I1
sS'second'
p48
I4
sS'street'
p49
I2
sS'colourful'
p50
I1
sS'expressions'
p51
I1
sS'jailhouse'
p52
I1
sS'shining'
p53
I1
sS'even'
p54
I31
sS'established'
p55
I1
sS'captain'
p56
I1
sS'hate'
p57
I1
sS'+'
p58
I5
sS'emerald'
p59
I1
sS'revolves'
p60
I1
sS'bines'
p61
I1
sS'absolute'
p62
I1
sS'new'
p63
I12
sS'ever'
p64
I52
sS'discrimination'
p65
I1
sS'disney'
p66
I7
sS'told'
p67
I2
sS'extremly'
p68
I1
sS'jems'
p69
I1
sS'simultaneously'
p70
I1
sS'dahl'
p71
I2
sS'festive'
p72
I2
sS'men'
p73
I6
sS'richest'
p74
I1
sS'here'
p75
I3
sS'kingsly'
p76
I1
sS'100'
p77
I1
sS"aren't"
p78
I3
sS'kids'
p79
I36
sS'daughter'
p80
I1
sS'suitably'
p81
I1
sS'non-disney'
p82
I1
sS'study'
p83
I5
sS'changed'
p84
I1
sS'controversy'
p85
I1
sS'credit'
p86
I1
sS"i'd"
p87
I2
sS'military'
p88
I2
sS"i'm"
p89
I8
sS'changes'
p90
I1
sS'golden'
p91
I2
sS'fantastic'
p92
I10
sS'fast-fading'
p93
I1
sS'besides'
p94
I1
sS'idealism'
p95
I1
sS'dorthy'
p96
I1
sS'highly'
p97
I9
sS'brought'
p98
I4
sS'moral'
p99
I4
sS'actions'
p100
I1
sS'surpreme'
p101
I1
sS'scarier'
p102
I1
sS'plot'
p103
I14
sS'riffed'
p104
I1
sS'exhileration'
p105
I1
sS'indians'
p106
I1
sS'negative'
p107
I1
sS'music'
p108
I11
sS'until'
p109
I5
sS'recommend'
p110
I3
sS'type'
p111
I1
sS"fonda's"
p112
I1
sS'holy'
p113
I1
sS'oscar'
p114
I4
sS'naive'
p115
I1
sS'wars'
p116
I2
sS'grief'
p117
I1
sS'berlin'
p118
I1
sS'warm'
p119
I1
sS'adult'
p120
I4
sS'excellent'
p121
I18
sS'hold'
p122
I5
sS'must'
p123
I11
sS'me'
p124
I32
sS'tnt'
p125
I1
sS'ma'
p126
I3
sS'room'
p127
I2
sS'movied'
p128
I1
sS'rights'
p129
I1
sS'1998'
p130
I1
sS'work'
p131
I10
sS'somber'
p132
I1
sS'entertained'
p133
I1
sS'movies'
p134
I67
sS'era'
p135
I5
sS'mr'
p136
I10
sS'my'
p137
I89
sS'example'
p138
I2
sS'anticipating'
p139
I1
sS'unforgettably'
p140
I1
sS'give'
p141
I9
sS'danvers'
p142
I2
sS'climax'
p143
I1
sS'floor'
p144
I2
sS'laughs'
p145
I1
sS'heartless'
p146
I1
sS'mermaids'
p147
I2
sS'glued'
p148
I1
sS"disney's"
p149
I1
sS'times'
p150
I28
sS'loathe'
p151
I1
sS'inherent'
p152
I2
sS'end'
p153
I18
sS'turn'
p154
I1
sS'provide'
p155
I2
sS'earrings'
p156
I1
sS'travel'
p157
I1
sS'feature'
p158
I2
sS'how'
p159
I29
sS'amazing'
p160
I9
sS'writers'
p161
I1
sS'disappoint'
p162
I1
sS'clarnece'
p163
I1
sS'description'
p164
I1
sS'beauty'
p165
I3
sS'loomis'
p166
I1
sS'mess'
p167
I1
sS'henreid'
p168
I1
sS'after'
p169
I25
sS'loyalty'
p170
I1
sS'astoundingly'
p171
I1
sS'complicated'
p172
I1
sS'thankyou'
p173
I1
sS'wrong'
p174
I3
sS'hee-haw'
p175
I2
sS'creativity'
p176
I1
sS'types'
p177
I1
sS'ambivalent'
p178
I1
sS'attempt'
p179
I2
sS'third'
p180
I1
sS'appreciate'
p181
I6
sS'lost'
p182
I2
sS'think'
p183
I39
sS'sickening'
p184
I1
sS'showering'
p185
I1
sS'chiller'
p186
I1
sS'ultimate'
p187
I1
sS'keeps'
p188
I4
sS'tantalizing'
p189
I1
sS'order'
p190
I2
sS'backdrop'
p191
I1
sS'lindsay'
p192
I1
sS'emotion'
p193
I1
sS'executed'
p194
I1
sS'interpretation'
p195
I1
sS'office'
p196
I1
sS'understatedly'
p197
I1
sS'dreamed'
p198
I1
sS'over'
p199
I19
sS'satisfied'
p200
I1
sS"'father"
p201
I1
sS'bedford'
p202
I1
sS'memorable'
p203
I9
sS'falling'
p204
I1
sS'carnal'
p205
I1
sS'hook'
p206
I2
sS'wickedness'
p207
I1
sS'before'
p208
I10
sS'personal'
p209
I2
sS'adaption'
p210
I1
sS','
p211
I808
sS'imo'
p212
I1
sS'crew'
p213
I1
sS'better'
p214
I23
sS'rescued'
p215
I1
sS'production'
p216
I2
sS'differently'
p217
I1
sS'guys-james'
p218
I1
sS'overcome'
p219
I1
sS'then'
p220
I13
sS'them'
p221
I22
sS'combination'
p222
I1
sS'muniz'
p223
I2
sS'thee'
p224
I1
sS"we'll"
p225
I1
sS'break'
p226
I2
sS'ugliness'
p227
I1
sS'bang'
p228
I1
sS"profiteer's"
p229
I1
sS'effects'
p230
I8
sS'they'
p231
I64
sS'yourself'
p232
I2
sS'lifelong'
p233
I1
sS'silver'
p234
I2
sS'bank'
p235
I1
sS'shadows'
p236
I4
sS'stereo'
p237
I1
sS'alex'
p238
I1
sS'acme'
p239
I1
sS'debut'
p240
I1
sS'l'
p241
I1
sS'rocks'
p242
I5
sS'wooden'
p243
I1
sS'filling'
p244
I1
sS'each'
p245
I9
sS'went'
p246
I5
sS'pepping'
p247
I1
sS'side'
p248
I3
sS'lasting'
p249
I1
sS'series'
p250
I1
sS'innocent'
p251
I2
sS'literature'
p252
I1
sS'doug'
p253
I1
sS'logo'
p254
I1
sS'truman'
p255
I2
sS"twain's"
p256
I1
sS'comedies'
p257
I2
sS'network'
p258
I1
sS'god'
p259
I3
sS'motel'
p260
I5
sS'sparkly'
p261
I1
sS'mason'
p262
I4
sS'content'
p263
I2
sS'trek-plot'
p264
I1
sS'got'
p265
I13
sS'judith'
p266
I3
sS'dashiell'
p267
I1
sS'clarence'
p268
I3
sS"you're"
p269
I2
sS'sheer'
p270
I4
sS'free'
p271
I4
sS'tinkles'
p272
I1
sS'masterpiece'
p273
I23
sS'grapes'
p274
I1
sS"people's"
p275
I1
sS'amazement'
p276
I1
sS'wanted'
p277
I2
sS'bates'
p278
I11
sS'created'
p279
I7
sS'georgous'
p280
I1
sS'messages'
p281
I1
sS'days'
p282
I3
sS'priorities'
p283
I1
sS'creates'
p284
I1
sS'flawless'
p285
I1
sS'levels'
p286
I1
sS"today's"
p287
I3
sS'loud'
p288
I2
sS'caught'
p289
I2
sS'stewart'
p290
I16
sS'flick'
p291
I3
sS'rang'
p292
I1
sS'appeals'
p293
I3
sS"'mockingbird's'"
p294
I1
sS'psychic'
p295
I1
sS'veggie'
p296
I2
sS'perkins'
p297
I9
sS'fantasy'
p298
I8
sS'another'
p299
I10
sS'drones'
p300
I1
sS'banderas'
p301
I1
sS'masterfully'
p302
I2
sS'brock'
p303
I2
sS'magnificent'
p304
I4
sS'rated'
p305
I5
sS'likely'
p306
I1
sS'mis-conceptions'
p307
I1
sS'guinness'
p308
I1
sS'top'
p309
I12
sS'concise'
p310
I1
sS'girls'
p311
I5
sS'fiction'
p312
I1
sS'needed'
p313
I2
sS'ton'
p314
I1
sS'listed'
p315
I1
sS'tom'
p316
I3
sS'hollywood'
p317
I4
sS'john'
p318
I7
sS'dogs'
p319
I6
sS'listen'
p320
I4
sS'murder'
p321
I2
sS'stuffed'
p322
I1
sS'tool'
p323
I1
sS'albert'
p324
I1
sS'took'
p325
I3
sS'trippy'
p326
I1
sS'japanese'
p327
I3
sS'rectified'
p328
I1
sS'predictable'
p329
I5
sS'somewhat'
p330
I2
sS"holden's"
p331
I1
sS'heart-stopping'
p332
I1
sS'begins'
p333
I1
sS'trek'
p334
I1
sS'roles'
p335
I6
sS'exorcist'
p336
I1
sS'scenes'
p337
I13
sS'shower'
p338
I15
sS'matter'
p339
I4
sS'classes'
p340
I1
sS'silly'
p341
I1
sS'friend'
p342
I5
sS'deserving'
p343
I1
sS'feeling'
p344
I4
sS'countess'
p345
I1
sS'brilliant'
p346
I10
sS'screenplay'
p347
I3
sS'bridge'
p348
I4
sS'fashion'
p349
I2
sS'sees'
p350
I1
sS'cabin'
p351
I1
sS'modern'
p352
I2
sS'mind'
p353
I2
sS'mine'
p354
I3
sS'return'
p355
I1
sS'all-time'
p356
I9
sS'corny'
p357
I3
sS'seen'
p358
I32
sS'seem'
p359
I5
sS'incontext'
p360
I1
sS'seek'
p361
I1
sS'dozen'
p362
I1
sS'forced'
p363
I3
sS'smack'
p364
I1
sS'philistine'
p365
I1
sS'harper'
p366
I2
sS'thoroughly'
p367
I3
sS'-'
p368
I22
sS'recommended'
p369
I7
sS'subjects'
p370
I1
sS'amusing'
p371
I1
sS'laughed'
p372
I2
sS'creatures'
p373
I1
sS'blue'
p374
I1
sS'nobody'
p375
I1
sS'destiny23'
p376
I1
sS'though'
p377
I15
sS'bruce'
p378
I1
sS'cinematic'
p379
I6
sS'resonates'
p380
I1
sS'flashback'
p381
I2
sS'regular'
p382
I1
sS'plenty'
p383
I1
sS'suc'
p384
I2
sS'marie'
p385
I3
sS'thriller'
p386
I8
sS'singer'
p387
I1
sS'observation'
p388
I1
sS'pinacle'
p389
I1
sS'aways'
p390
I1
sS'camp'
p391
I6
sS'dog'
p392
I4
sS'allergic'
p393
I1
sS'reputation'
p394
I4
sS'beatiful'
p395
I1
sS'entertaining'
p396
I7
sS'scream'
p397
I2
sS'came'
p398
I9
sS'saying'
p399
I4
sS'bomb'
p400
I1
sS'inspire'
p401
I1
sS'hunger'
p402
I1
sS'insects'
p403
I1
sS'queen'
p404
I1
sS'sage'
p405
I1
sS'brilliance'
p406
I4
sS'nominated'
p407
I1
sS'ending'
p408
I12
sS'kruger'
p409
I1
sS'attempts'
p410
I1
sS'musicals'
p411
I1
sS'seen--both'
p412
I1
sS'earth'
p413
I2
sS'enjoyed'
p414
I7
sS"hitch's"
p415
I1
sS'lessons'
p416
I5
sS"scout's"
p417
I1
sS'consciousness'
p418
I2
sS'claude'
p419
I1
sS'situations'
p420
I2
sS'theme'
p421
I3
sS'rick'
p422
I1
sS'stabbing'
p423
I1
sS'gooffy'
p424
I2
sS'folks'
p425
I1
sS'do'
p426
I23
sS'mixture'
p427
I1
sS'fontaine'
p428
I5
sS'de'
p429
I1
sS'watch'
p430
I37
sS'fluid'
p431
I1
sS'foremost'
p432
I1
sS'amazon'
p433
I1
sS'haunted'
p434
I1
sS'altogether'
p435
I1
sS'du'
p436
I1
sS'unconsciously'
p437
I1
sS'bigger'
p438
I1
sS'runs'
p439
I1
sS'bar'
p440
I1
sS'covering'
p441
I1
sS'public'
p442
I1
sS"children's"
p443
I3
sS'bad'
p444
I17
sS"hitchcock's"
p445
I15
sS'architecture'
p446
I1
sS'release'
p447
I4
sS'saul'
p448
I1
sS'decides'
p449
I2
sS'human'
p450
I4
sS'fascinating'
p451
I1
sS'1960s'
p452
I1
sS'fairvale'
p453
I1
sS'imho'
p454
I1
sS'holding'
p455
I1
sS'miserable'
p456
I1
sS"directors'"
p457
I1
sS'best'
p458
I86
sS'sinks'
p459
I1
sS'said'
p460
I3
sS'duff'
p461
I1
sS'lots'
p462
I2
sS'away'
p463
I9
sS'dynamite'
p464
I1
sS'pbeavr'
p465
I1
sS'portrayed'
p466
I5
sS'smacks'
p467
I1
sS'mud'
p468
I1
sS"there's"
p469
I3
sS'teaching'
p470
I2
sS'drawn'
p471
I1
sS'discovery'
p472
I1
sS'warrior'
p473
I1
sS'we'
p474
I28
sS'never'
p475
I35
sS'terms'
p476
I1
sS'wayword'
p477
I1
sS'nature'
p478
I2
sS'rolled'
p479
I1
sS'optimist'
p480
I2
sS'however'
p481
I7
sS'nightmares'
p482
I1
sS'extent'
p483
I1
sS'news'
p484
I1
sS'suspensful'
p485
I1
sS'improve'
p486
I1
sS'tyranny'
p487
I1
sS'colors'
p488
I1
sS'sacrificing'
p489
I2
sS'psychiatrist'
p490
I1
sS'country'
p491
I1
sS'adventures'
p492
I1
sS'against'
p493
I9
sS'players'
p494
I2
sS'first-rate'
p495
I1
sS'planned'
p496
I2
sS'faces'
p497
I2
sS'argue'
p498
I2
sS'asked'
p499
I1
sS'suggest'
p500
I1
sS'bored'
p501
I1
sS'tone'
p502
I1
sS'had'
p503
I33
sS'offerings'
p504
I1
sS'tons'
p505
I1
sS'eye-opening'
p506
I1
sS'retelling'
p507
I1
sS'tony'
p508
I1
sS'self-imprisonment'
p509
I1
sS'blonde'
p510
I1
sS'masterpeice'
p511
I1
sS'speak'
p512
I2
sS'bathroom'
p513
I1
sS'strong'
p514
I3
sS'angel'
p515
I3
sS'puts'
p516
I2
sS'germans'
p517
I1
sS'futility'
p518
I1
sS'three'
p519
I4
sS'been'
p520
I23
sS'.'
p521
I1345
sS'much'
p522
I23
sS'sessue'
p523
I2
sS'smooth-talking'
p524
I1
sS'entered'
p525
I2
sS'lovely'
p526
I2
sS'scarecrow'
p527
I5
sS'well-deserved'
p528
I1
sS'life'
p529
I32
sS'families'
p530
I1
sS'beloved'
p531
I2
sS'mocie'
p532
I1
sS'baum'
p533
I1
sS'charleton'
p534
I1
sS'filmmaker'
p535
I1
sS'vulcan'
p536
I1
sS'personally'
p537
I2
sS'voices'
p538
I2
sS'favrorite'
p539
I1
sS'lionel'
p540
I2
sS'jenniffer'
p541
I1
sS'unecessary'
p542
I1
sS'exception'
p543
I2
sS'gritty'
p544
I1
sS'willis'
p545
I1
sS"dustin'"
p546
I1
sS'tastes'
p547
I1
sS'act'
p548
I2
sS'aim'
p549
I2
sS'near'
p550
I1
sS'neat'
p551
I1
sS'leaves'
p552
I1
sS'cracked'
p553
I1
sS'voice'
p554
I4
sS'overtaking'
p555
I1
sS'vegetarian'
p556
I1
sS'chilling'
p557
I1
sS'mistake'
p558
I1
sS'captivating'
p559
I1
sS'played'
p560
I8
sS'is'
p561
I434
sS'it'
p562
I390
sS'ii'
p563
I3
sS'shame'
p564
I3
sS'cant'
p565
I1
sS'straits'
p566
I1
sS'im'
p567
I5
sS'creepy'
p568
I4
sS'in'
p569
I251
sS'ie'
p570
I1
sS'id'
p571
I1
sS'if'
p572
I45
sS'rhondda'
p573
I1
sS'things'
p574
I11
sS'make'
p575
I23
sS'demands'
p576
I1
sS'forms--movie'
p577
I1
sS"1940's"
p578
I1
sS'several'
p579
I5
sS'convictions'
p580
I1
sS'couple'
p581
I1
sS'unforgetable'
p582
I2
sS'meets'
p583
I5
sS'moose'
p584
I1
sS'welsh'
p585
I1
sS'misery'
p586
I1
sS'evil'
p587
I4
sS'delight'
p588
I3
sS'embezzeling'
p589
I1
sS'producers'
p590
I1
sS'characters'
p591
I29
sS'selfless'
p592
I2
sS'overt'
p593
I1
sS'opportunity'
p594
I1
sS'kid'
p595
I16
sS'kept'
p596
I1
sS'stupendous'
p597
I1
sS"steinbeck's"
p598
I1
sS'askance'
p599
I1
sS'exited'
p600
I1
sS'contact'
p601
I1
sS'heart-pounding'
p602
I1
sS'greatest'
p603
I37
sS'mother'
p604
I10
sS'hearts'
p605
I3
sS'the'
p606
I1126
sS'800'
p607
I1
sS'musical'
p608
I2
sS'dads'
p609
I1
sS'left'
p610
I6
sS'opinions'
p611
I1
sS'boyhood'
p612
I1
sS'just'
p613
I57
sS'recitng'
p614
I1
sS'aside'
p615
I3
sS'quotes'
p616
I1
sS'fighters'
p617
I1
sS'bugged'
p618
I1
sS'quintessential'
p619
I1
sS'victim'
p620
I2
sS'yep'
p621
I1
sS'yes'
p622
I1
sS'lila'
p623
I1
sS'yet'
p624
I2
sS'previous'
p625
I2
sS'note'
p626
I1
sS'dewinter'
p627
I1
sS'enters'
p628
I1
sS'nudge'
p629
I2
sS'huckleberry'
p630
I1
sS'elm'
p631
I1
sS'boot'
p632
I2
sS'character'
p633
I20
sS'bloodbath'
p634
I1
sS'hitchock'
p635
I1
sS'prisoner'
p636
I1
sS'teenager'
p637
I1
sS'easy'
p638
I3
sS'prison'
p639
I3
sS'boulle'
p640
I1
sS'save'
p641
I3
sS'humanity'
p642
I1
sS'gave'
p643
I1
sS'casting'
p644
I1
sS'exploiting'
p645
I1
sS'capt'
p646
I1
sS'breaks'
p647
I1
sS'awhile'
p648
I1
sS'possibly'
p649
I3
sS'glinda'
p650
I1
sS'dreamy'
p651
I1
sS'destroy'
p652
I3
sS'unique'
p653
I1
sS'dreams'
p654
I1
sS'apart'
p655
I2
sS'generated'
p656
I1
sS'psychological'
p657
I3
sS'brutality'
p658
I1
sS'unfortunatly'
p659
I1
sS'50'
p660
I1
sS'disillusioned'
p661
I1
sS'steps'
p662
I2
sS'splendor'
p663
I1
sS"mgm's"
p664
I1
sS'night'
p665
I4
sS'battlefield'
p666
I1
sS'right'
p667
I10
sS'old'
p668
I17
sS'ole'
p669
I1
sS'spongebob'
p670
I2
sS'people'
p671
I35
sS'understand'
p672
I6
sS'somehow'
p673
I2
sS'dead'
p674
I1
sS'man-'
p675
I1
sS'donald'
p676
I1
sS'supense'
p677
I1
sS'escape'
p678
I5
sS'vitues'
p679
I1
sS'guess'
p680
I3
sS'enemies'
p681
I1
sS'christman'
p682
I1
sS'sociology'
p683
I1
sS'humor'
p684
I9
sS'trace'
p685
I1
sS'for'
p686
I143
sS'bottom'
p687
I3
sS'fox'
p688
I1
sS'/'
p689
I9
sS'marseilles'
p690
I1
sS'witty'
p691
I6
sS'everything'
p692
I13
sS'yields'
p693
I1
sS'beating'
p694
I3
sS'adorable'
p695
I1
sS'christmas'
p696
I16
sS'displayed'
p697
I1
sS'overrated'
p698
I1
sS'cord'
p699
I1
sS'core'
p700
I1
sS'hazel'
p701
I1
sS'meanings'
p702
I1
sS'geez'
p703
I1
sS'ww2'
p704
I1
sS'spider-man'
p705
I1
sS'starring'
p706
I2
sS'losing'
p707
I2
sS'eye'
p708
I1
sS'post'
p709
I1
sS'falls'
p710
I2
sS'takes'
p711
I7
sS'would'
p712
I48
sS'innuendo'
p713
I1
sS'months'
p714
I1
sS'choke'
p715
I1
sS'o'
p716
I3
sS'flourishes'
p717
I1
sS'despair'
p718
I5
sS'plus'
p719
I2
sS'cherish'
p720
I1
sS'efforts'
p721
I1
sS'farewll'
p722
I1
sS'lemmings'
p723
I1
sS'guiness'
p724
I4
sS'wasting'
p725
I1
sS'honeymoon'
p726
I1
sS'son'
p727
I2
sS'down'
p728
I9
sS'thankful'
p729
I1
sS"society's"
p730
I1
sS'balanced'
p731
I1
sS'soon'
p732
I1
sS'awe'
p733
I1
sS'allways'
p734
I1
sS'east'
p735
I1
sS'rely'
p736
I1
sS'deal'
p737
I1
sS'maurier'
p738
I1
sS'greenstreet'
p739
I3
sS'amazingly'
p740
I1
sS'flying'
p741
I2
sS'fight'
p742
I2
sS'stuck'
p743
I1
sS'anderson'
p744
I3
sS'way'
p745
I23
sS'greatness'
p746
I2
sS'jane'
p747
I2
sS'quirky'
p748
I1
sS'icon'
p749
I1
sS'was'
p750
I188
sS'war'
p751
I22
sS'happy'
p752
I3
sS'intolerance'
p753
I1
sS'head'
p754
I10
sS'form'
p755
I2
sS'lovitz'
p756
I1
sS'becoming'
p757
I1
sS'gorgeous'
p758
I1
sS'sodomizes'
p759
I1
sS'landing'
p760
I1
sS'ford'
p761
I3
sS'taken'
p762
I1
sS'talents'
p763
I1
sS'schitzophrenia'
p764
I1
sS'hear'
p765
I1
sS'gangbusters'
p766
I1
sS'true'
p767
I18
sS'builds'
p768
I1
sS'born'
p769
I5
sS'heartwarming'
p770
I4
sS'inside'
p771
I3
sS'fills'
p772
I1
sS'whisked'
p773
I1
sS'tell'
p774
I5
sS'considered'
p775
I3
sS'adore'
p776
I1
sS'emotional'
p777
I2
sS'daddy'
p778
I1
sS'dozens'
p779
I1
sS'barrymore'
p780
I2
sS'classic'
p781
I60
sS"marion's"
p782
I1
sS'nicholson'
p783
I1
sS'icy-calm'
p784
I1
sS'exist'
p785
I1
sS'bogart'
p786
I10
sS'fashioned'
p787
I1
sS'shines'
p788
I2
sS'annoying'
p789
I2
sS'trip'
p790
I1
sS'physical'
p791
I1
sS'clasic'
p792
I1
sS'faithful'
p793
I2
sS'aunts'
p794
I2
sS'eerie'
p795
I1
sS'when'
p796
I53
sS'actor'
p797
I3
sS'reality'
p798
I1
sS'tin'
p799
I2
sS'interested'
p800
I5
sS'role'
p801
I5
sS'auspicious'
p802
I1
sS'brings'
p803
I2
sS'flintstones'
p804
I1
sS'becuase'
p805
I1
sS'hoffman'
p806
I2
sS'realize'
p807
I1
sS'undeniably'
p808
I1
sS'picture'
p809
I7
sS'woodman'
p810
I1
sS'scarriest'
p811
I1
sS'garland'
p812
I6
sS'surprise'
p813
I2
sS'felt'
p814
I2
sS'update'
p815
I3
sS'perversity'
p816
I1
sS'trailers'
p817
I1
sS'fell'
p818
I1
sS'intent'
p819
I1
sS'origional'
p820
I3
sS'nods'
p821
I1
sS'proceeding'
p822
I1
sS'outclimb'
p823
I1
sS'died'
p824
I1
sS'99'
p825
I1
sS'younger'
p826
I3
sS'outskirts'
p827
I1
sS'together'
p828
I10
sS'time'
p829
I80
sS"dorothy's"
p830
I1
sS'songs'
p831
I10
sS'absoultely'
p832
I1
sS'concept'
p833
I1
sS'customary'
p834
I1
sS'remarkable'
p835
I2
sS'whoever'
p836
I2
sS'reviewers'
p837
I3
sS'souls'
p838
I1
sS'sympathetic'
p839
I1
sS'leads'
p840
I2
sS'mild'
p841
I1
sS'manages'
p842
I1
sS'marion'
p843
I7
sS'comments'
p844
I1
sS'skin'
p845
I1
sS'battle'
p846
I1
sS'creative'
p847
I2
sS'heart-breaking'
p848
I1
sS'certainly'
p849
I2
sS'uneven'
p850
I1
sS'ver'
p851
I1
sS'somthing'
p852
I1
sS'filming'
p853
I1
sS'father'
p854
I5
sS'finally'
p855
I4
sS'unpleasant'
p856
I1
sS'marriage-shy'
p857
I1
sS'terror'
p858
I1
sS'more-relaxed'
p859
I1
sS'rebecca'
p860
I3
sS'shoot'
p861
I1
sS'jerk'
p862
I1
sS'directorial'
p863
I1
sS'charceter'
p864
I1
sS'seemingly'
p865
I1
sS'choice'
p866
I1
sS'lynch'
p867
I1
sS'feel-good'
p868
I1
sS'word'
p869
I3
sS'trouble'
p870
I1
sS'heston'
p871
I1
sS'minute'
p872
I1
sS'cool'
p873
I9
sS'dil'
p874
I1
sS'epic'
p875
I2
sS'looney'
p876
I1
sS'lohan'
p877
I1
sS'presented'
p878
I1
sS'did'
p879
I28
sS'die'
p880
I5
sS'ers'
p881
I1
sS'brother'
p882
I3
sS'standards'
p883
I1
sS'gus'
p884
I1
sS'engrossing'
p885
I1
sS'live-action'
p886
I1
sS'team'
p887
I1
sS'red-faced'
p888
I1
sS'round'
p889
I1
sS"90's"
p890
I2
sS'prevent'
p891
I1
sS'unexpected'
p892
I1
sS'says'
p893
I2
sS'radley'
p894
I4
sS'inconsequential'
p895
I1
sS'mk'
p896
I1
sS'comforting'
p897
I1
sS'upped'
p898
I1
sS'eating'
p899
I1
sS'hymn'
p900
I2
sS'adds'
p901
I2
sS'stands'
p902
I2
sS'mt'
p903
I1
sS'buncha'
p904
I1
sS'melt'
p905
I1
sS'current'
p906
I2
sS'suspect'
p907
I1
sS'goes'
p908
I10
sS'selnick'
p909
I1
sS'appeal'
p910
I2
sS'freaky'
p911
I1
sS'supporting'
p912
I6
sS'angelina'
p913
I1
sS'guardian'
p914
I1
sS'henry'
p915
I5
sS'french'
p916
I2
sS'understanding'
p917
I1
sS'water'
p918
I1
sS'witch'
p919
I9
sS'crop-duster'
p920
I1
sS'groups'
p921
I1
sS'alone'
p922
I2
sS'noir'
p923
I2
sS'along'
p924
I13
sS'teaches'
p925
I3
sS'change'
p926
I1
sS'wait'
p927
I1
sS'box'
p928
I1
sS'boy'
p929
I8
sS'redemption'
p930
I1
sS'shove'
p931
I1
sS'healthy'
p932
I1
sS'root'
p933
I1
sS'studied'
p934
I1
sS'exploitation'
p935
I1
sS'accomplished'
p936
I1
sS'boo'
p937
I6
sS'usually'
p938
I1
sS'priceless'
p939
I1
sS'bob'
p940
I1
sS'wails'
p941
I1
sS'unfortunately'
p942
I1
sS'actubg'
p943
I1
sS'love'
p944
I65
sS'morals'
p945
I1
sS'hopeful'
p946
I1
sS'prefer'
p947
I1
sS'compare'
p948
I2
sS'gory'
p949
I1
sS'jolt'
p950
I2
sS'marvelous'
p951
I1
sS'1st'
p952
I2
sS'rarely'
p953
I3
sS'crisis'
p954
I1
sS'foreshadowings'
p955
I1
sS'everybody'
p956
I1
sS'handled'
p957
I2
sS'prove'
p958
I2
sS'sake'
p959
I1
sS'positive'
p960
I2
sS'angry'
p961
I1
sS'visit'
p962
I1
sS'tears'
p963
I1
sS'france'
p964
I2
sS'imaginations'
p965
I1
sS'live'
p966
I5
sS'wonderfully'
p967
I4
sS'memory'
p968
I1
sS'films'
p969
I25
sS"init's"
p970
I1
sS'thru'
p971
I1
sS"child's"
p972
I1
sS'today'
p973
I12
sS'wicked'
p974
I3
sS"wrath'"
p975
I1
sS'riot'
p976
I1
sS'strory'
p977
I1
sS'fast-moving'
p978
I1
sS'claus'
p979
I1
sS'visual'
p980
I3
sS'drown'
p981
I1
sS'savior'
p982
I1
sS'watcher'
p983
I1
sS'goofiness'
p984
I1
sS'given'
p985
I2
sS'effort'
p986
I2
sS'yelling'
p987
I1
sS'duvall'
p988
I5
sS'ecscuse'
p989
I1
sS'deserved'
p990
I1
sS"ford's"
p991
I2
sS'car'
p992
I2
sS'originally'
p993
I1
sS'pretend'
p994
I1
sS"film'"
p995
I1
sS'aired'
p996
I1
sS'believes'
p997
I1
sS'reviews'
p998
I1
sS'judy'
p999
I10
sS'values'
p1000
I2
sS'can'
p1001
I36
sS'goody'
p1002
I1
sS'growing'
p1003
I2
sS'making'
p1004
I4
sS'dispute'
p1005
I1
sS'gunfire'
p1006
I1
sS'lighthearted'
p1007
I1
sS'spy'
p1008
I4
sS'crazy'
p1009
I1
sS'want'
p1010
I11
sS'december'
p1011
I1
sS'awesome'
p1012
I10
sS'nemo'
p1013
I1
sS"didn't"
p1014
I4
sS'agent'
p1015
I1
sS'saito'
p1016
I1
sS'topic'
p1017
I1
sS'heard'
p1018
I2
sS'allowed'
p1019
I2
sS'spanning'
p1020
I1
sS'capra'
p1021
I3
sS'pink'
p1022
I1
sS'aaaa'
p1023
I1
sS'fortunately'
p1024
I1
sS'means'
p1025
I1
sS'cliche'
p1026
I1
sS'1'
p1027
I2
sS'till'
p1028
I2
sS'sword'
p1029
I1
sS'youth'
p1030
I1
sS'unforgettable'
p1031
I2
sS'photography'
p1032
I2
sS'criminal'
p1033
I1
sS'spielberg'
p1034
I1
sS'may'
p1035
I8
sS'max'
p1036
I2
sS'sacrifice'
p1037
I2
sS'granddaughter'
p1038
I1
sS'pathetic'
p1039
I1
sS'4th'
p1040
I1
sS'g-rated'
p1041
I1
sS'date'
p1042
I2
sS'such'
p1043
I15
sS'suck'
p1044
I1
sS'destructive'
p1045
I2
sS'flourish'
p1046
I1
sS'grow'
p1047
I2
sS'unbelievably'
p1048
I1
sS'man'
p1049
I21
sS'fantasia'
p1050
I1
sS'remember'
p1051
I9
sS'succeeded'
p1052
I1
sS'whenever'
p1053
I4
sS'maybe'
p1054
I2
sS"'to"
p1055
I1
sS'tale'
p1056
I4
sS'complaining'
p1057
I2
sS'so'
p1058
I70
sS'african'
p1059
I1
sS'garlands'
p1060
I1
sS'representation'
p1061
I1
sS'se'
p1062
I1
sS'typical'
p1063
I1
sS'drunken'
p1064
I1
sS'cute'
p1065
I9
sS'shoes'
p1066
I1
sS'noteworthy'
p1067
I1
sS'indeed'
p1068
I4
sS'mainly'
p1069
I1
sS'years'
p1070
I9
sS'course'
p1071
I5
sS'episodes'
p1072
I1
sS'blood-splatter'
p1073
I1
sS'pitch'
p1074
I2
sS'macguffins'
p1075
I1
sS'still'
p1076
I28
sS'abusers'
p1077
I1
sS'acknowledge'
p1078
I1
sS'interesting'
p1079
I10
sS'jim'
p1080
I1
sS'encompasses'
p1081
I1
sS'hot'
p1082
I2
sS'forms'
p1083
I1
sS'civil'
p1084
I1
sS'talked-about'
p1085
I1
sS'hometown'
p1086
I1
sS'main'
p1087
I7
sS'decades'
p1088
I2
sS'texas'
p1089
I1
sS'happened'
p1090
I2
sS'lonely'
p1091
I1
sS'3'
p1092
I6
sS'killer'
p1093
I1
sS'touching'
p1094
I3
sS'violins'
p1095
I1
sS'half'
p1096
I3
sS'not'
p1097
I85
sS'now'
p1098
I17
sS'1959'
p1099
I2
sS'killed'
p1100
I2
sS'josh'
p1101
I1
sS'wont'
p1102
I2
sS'idyllic'
p1103
I1
sS'name'
p1104
I1
sS'sop'
p1105
I1
sS'opera'
p1106
I1
sS'james'
p1107
I12
sS'drop'
p1108
I1
sS'didi'
p1109
I1
sS'appropriate'
p1110
I1
sS'possibilities'
p1111
I1
sS'realistic'
p1112
I3
sS'realise'
p1113
I1
sS'rock'
p1114
I3
sS'darwell'
p1115
I3
sS'em'
p1116
I2
sS'domain'
p1117
I1
sS'intersting'
p1118
I1
sS'sopranos'
p1119
I1
sS'starts'
p1120
I1
sS'ed'
p1121
I2
sS'anubis'
p1122
I1
sS'kane'
p1123
I2
sS'directing'
p1124
I1
sS'yeah'
p1125
I4
sS'challenges'
p1126
I1
sS'wrap'
p1127
I1
sS'year'
p1128
I21
sS'et'
p1129
I1
sS'happen'
p1130
I3
sS'summary'
p1131
I4
sS'obsession'
p1132
I1
sS'er'
p1133
I1
sS'canada'
p1134
I2
sS'living'
p1135
I2
sS'shown'
p1136
I5
sS"america's"
p1137
I1
sS'jackson'
p1138
I1
sS'goober'
p1139
I3
sS'3rd'
p1140
I1
sS'space'
p1141
I3
sS'untold'
p1142
I1
sS'looking'
p1143
I8
sS'transforming'
p1144
I1
sS'seriously'
p1145
I1
sS'housemaid'
p1146
I1
sS'overlook'
p1147
I1
sS'correct'
p1148
I1
sS'shows'
p1149
I7
sS'bynes'
p1150
I1
sS'cary'
p1151
I7
sS'lorre'
p1152
I3
sS'million'
p1153
I1
sS'quite'
p1154
I10
sS'col'
p1155
I1
sS'california'
p1156
I2
sS'rebel'
p1157
I1
sS'carl'
p1158
I1
sS'grandma'
p1159
I1
sS'quits'
p1160
I1
sS'ominous'
p1161
I1
sS'care'
p1162
I4
sS'underwear'
p1163
I1
sS'language'
p1164
I1
sS'waiter'
p1165
I1
sS'where'
p1166
I22
sS'thirties'
p1167
I1
sS'transition'
p1168
I1
sS'pirates'
p1169
I1
sS'british'
p1170
I4
sS'communicated'
p1171
I1
sS'motion'
p1172
I4
sS'thing'
p1173
I10
sS'funky'
p1174
I1
sS'place'
p1175
I11
sS'thankfulness'
p1176
I1
sS'star'
p1177
I13
sS'childhood'
p1178
I8
sS'first'
p1179
I32
sS'origin'
p1180
I1
sS'initial'
p1181
I1
sS'saving'
p1182
I1
sS'pick'
p1183
I1
sS'24'
p1184
I1
sS'crie'
p1185
I1
sS'waves'
p1186
I1
sS'potter'
p1187
I4
sS'one'
p1188
I155
sS'vote'
p1189
I1
sS'impossible'
p1190
I1
sS'sounds'
p1191
I1
sS'open'
p1192
I1
sS'cheesy'
p1193
I1
sS"'em"
p1194
I1
sS'millions'
p1195
I1
sS'city'
p1196
I1
sS'little'
p1197
I26
sS'murky'
p1198
I1
sS'lens'
p1199
I1
sS'anyone'
p1200
I10
sS'psychotic'
p1201
I1
sS'2'
p1202
I8
sS'tragic'
p1203
I1
sS'terrifying'
p1204
I2
sS'alfred'
p1205
I13
sS'realization'
p1206
I2
sS'white'
p1207
I10
sS'speaking'
p1208
I2
sS'gives'
p1209
I4
sS'holden'
p1210
I5
sS'slasher'
p1211
I4
sS'eyes'
p1212
I5
sS'herrman'
p1213
I1
sS'that'
p1214
I209
sS'humans'
p1215
I2
sS'proving'
p1216
I1
sS'steinbeck'
p1217
I2
sS'broadcast'
p1218
I1
sS'released'
p1219
I1
sS'short'
p1220
I2
sS'gin'
p1221
I1
sS'shirley'
p1222
I1
sS'cartoon'
p1223
I3
sS'peck'
p1224
I11
sS'representing'
p1225
I1
sS'than'
p1226
I28
sS"here's"
p1227
I2
sS'11'
p1228
I1
sS'10'
p1229
I5
sS'television'
p1230
I1
sS'12'
p1231
I2
sS'whinging'
p1232
I1
sS'14'
p1233
I2
sS'17'
p1234
I1
sS'16'
p1235
I2
sS'gotta'
p1236
I2
sS'future'
p1237
I2
sS'were'
p1238
I39
sS'yesteryear'
p1239
I1
sS'anyways'
p1240
I2
sS'and'
p1241
I572
sS'selznick'
p1242
I1
sS'sam'
p1243
I5
sS'bert'
p1244
I1
sS"ma's"
p1245
I1
sS'entei'
p1246
I1
sS'occupies'
p1247
I1
sS'turned'
p1248
I6
sS'alley'
p1249
I1
sS'sad'
p1250
I5
sS'13th'
p1251
I1
sS'say'
p1252
I23
sS'suspense'
p1253
I20
sS'rent'
p1254
I3
sS'allen'
p1255
I1
sS'saw'
p1256
I17
sS'any'
p1257
I18
sS'homour'
p1258
I1
sS'overjoyed'
p1259
I1
sS'coal'
p1260
I1
sS'sequels'
p1261
I1
sS'somethings'
p1262
I1
sS'fanatic'
p1263
I1
sS'istake'
p1264
I1
sS'terrific'
p1265
I8
sS'animation'
p1266
I10
sS'take'
p1267
I8
sS'bailey'
p1268
I4
sS'performance'
p1269
I10
sS'europeans'
p1270
I1
sS'well-paced'
p1271
I1
sS'handing'
p1272
I1
sS'sure'
p1273
I13
sS'pain'
p1274
I1
sS'norman'
p1275
I15
sS'theatre'
p1276
I2
sS'tornado'
p1277
I3
sS'discerning'
p1278
I1
sS'knew'
p1279
I10
sS'fails'
p1280
I1
sS'blackest'
p1281
I1
sS'barrage'
p1282
I1
sS'airing'
p1283
I1
sS']'
p1284
I1
sS'definatly'
p1285
I1
sS'forever'
p1286
I6
sS'especially'
p1287
I11
sS'surprising'
p1288
I3
sS'lenny'
p1289
I2
sS'montage'
p1290
I1
sS'later'
p1291
I4
sS'drive'
p1292
I1
sS'mrs'
p1293
I2
sS'jitters'
p1294
I1
sS'wind'
p1295
I2
sS"80's"
p1296
I2
sS'literate'
p1297
I1
sS'shrieking'
p1298
I2
sS'detective'
p1299
I1
sS'rating'
p1300
I6
sS'walking'
p1301
I1
sS'shot'
p1302
I5
sS'show'
p1303
I13
sS'california-bound'
p1304
I1
sS'deadpanned'
p1305
I1
sS'imagines'
p1306
I1
sS'tearjerker'
p1307
I1
sS'pased'
p1308
I1
sS'teamed'
p1309
I1
sS'threshold'
p1310
I1
sS'spacey'
p1311
I1
sS'superb'
p1312
I8
sS'line'
p1313
I10
sS'casablanca'
p1314
I13
sS'slow'
p1315
I3
sS'brutally'
p1316
I1
sS'psycho-drama'
p1317
I1
sS'title'
p1318
I1
sS'daily'
p1319
I1
sS'written'
p1320
I8
sS'crime'
p1321
I1
sS'only'
p1322
I26
sS'going'
p1323
I7
sS'black'
p1324
I11
sS'hockey'
p1325
I1
sS'essence'
p1326
I1
sS'awareness'
p1327
I1
sS'plump'
p1328
I1
sS'hippo'
p1329
I1
sS'atticus'
p1330
I7
sS'child-self'
p1331
I1
sS'get'
p1332
I26
sS'truly'
p1333
I7
sS'simplistic'
p1334
I1
sS'cannot'
p1335
I5
sS'nearly'
p1336
I3
sS'sakall'
p1337
I2
sS'distinctly'
p1338
I1
sS'marooned'
p1339
I1
sS"'cool'"
p1340
I1
sS'silliness'
p1341
I1
sS'held'
p1342
I1
sS"curtiz's"
p1343
I2
sS'dramas'
p1344
I1
sS'spileberg'
p1345
I1
sS'worried'
p1346
I1
sS'naked'
p1347
I1
sS'jokes'
p1348
I4
sS'cavalry'
p1349
I1
sS'roger'
p1350
I1
sS'munizand'
p1351
I1
sS'xmas'
p1352
I1
sS'husband'
p1353
I2
sS'horse'
p1354
I1
sS'sean'
p1355
I1
sS'welshmen'
p1356
I1
sS'apologies'
p1357
I1
sS'wonder'
p1358
I9
sS'suspects'
p1359
I1
sS'camping'
p1360
I1
sS'maturity'
p1361
I1
sS'ways'
p1362
I1
sS'subsequent'
p1363
I1
sS'review'
p1364
I1
sS'definite'
p1365
I2
sS'carradine'
p1366
I1
sS'label'
p1367
I1
sS'boundaries'
p1368
I1
sS'behing'
p1369
I1
sS'behind'
p1370
I2
sS'permeated'
p1371
I1
sS'between'
p1372
I5
sS'teens'
p1373
I1
sS'across'
p1374
I3
sS'apprehention'
p1375
I1
sS'mature'
p1376
I1
sS'parent'
p1377
I2
sS'33'
p1378
I1
sS'screen'
p1379
I6
sS'style'
p1380
I1
sS'livened'
p1381
I1
sS'awards'
p1382
I2
sS'snowbell'
p1383
I1
sS'hurts'
p1384
I1
sS'20'
p1385
I3
sS'come'
p1386
I12
sS'reaction'
p1387
I1
sS'z'
p1388
I2
sS'talented'
p1389
I3
sS'mob'
p1390
I1
sS'goofie'
p1391
I2
sS'many'
p1392
I29
sS'quiet'
p1393
I1
sS'somewhere'
p1394
I3
sS'tour'
p1395
I1
sS'generartions'
p1396
I1
sS'dated'
p1397
I3
sS'remake'
p1398
I6
sS'comes'
p1399
I6
sS'pox'
p1400
I1
sS'terse'
p1401
I1
sS'pow'
p1402
I1
sS'period'
p1403
I2
sS'expectations'
p1404
I1
sS'60'
p1405
I1
sS'62'
p1406
I1
sS"couldn't"
p1407
I4
sS'rugrats'
p1408
I2
sS'ante'
p1409
I1
sS'moreover'
p1410
I1
sS'writing'
p1411
I3
sS'worthwhile'
p1412
I1
sS'considering'
p1413
I3
sS'late'
p1414
I6
sS'awsome'
p1415
I1
sS'caricature'
p1416
I1
sS'lifes'
p1417
I1
sS'capable'
p1418
I2
sS'west'
p1419
I4
sS'informed'
p1420
I1
sS'defined'
p1421
I1
sS'memento'
p1422
I1
sS'roald'
p1423
I2
sS'featuring'
p1424
I1
sS'crawford'
p1425
I2
sS'mary'
p1426
I2
sS'diatribe'
p1427
I1
sS'odessa'
p1428
I1
sS'wants'
p1429
I2
sS'direction'
p1430
I8
sS'busting'
p1431
I1
sS'thousand'
p1432
I1
sS'premarital'
p1433
I1
sS'suspected'
p1434
I1
sS'careful'
p1435
I1
sS'spirit'
p1436
I1
sS'those'
p1437
I21
sS'countless'
p1438
I1
sS'case'
p1439
I2
sS'bowie'
p1440
I1
sS'myself'
p1441
I4
sS'turtles'
p1442
I4
sS'developing'
p1443
I1
sS'these'
p1444
I10
sS'consultant'
p1445
I1
sS'mount'
p1446
I3
sS'polls'
p1447
I1
sS"bailey's"
p1448
I1
sS'hayes'
p1449
I1
sS'trick'
p1450
I1
sS'cast'
p1451
I27
sS'ongoing'
p1452
I1
sS'thrillers'
p1453
I1
sS'irrespective'
p1454
I1
sS"person's"
p1455
I1
sS'coolest'
p1456
I2
sS'grown-ups'
p1457
I1
sS'punches'
p1458
I1
sS'acclaimed'
p1459
I1
sS'eventually'
p1460
I1
sS'telephone'
p1461
I1
sS'commander'
p1462
I1
sS'middle'
p1463
I2
sS'someone'
p1464
I2
sS'drug'
p1465
I1
sS"garland's"
p1466
I1
sS'heels'
p1467
I1
sS'beaver'
p1468
I1
sS'technology'
p1469
I1
sS'fame'
p1470
I1
sS'fastest'
p1471
I1
sS'movements'
p1472
I1
sS'par'
p1473
I1
sS'williams'
p1474
I2
sS'ingrained'
p1475
I1
sS'author'
p1476
I1
sS'pay'
p1477
I1
sS'bowl'
p1478
I2
sS's'
p1479
I3
sS'same'
p1480
I9
sS'speech'
p1481
I1
sS'lovers'
p1482
I1
sS'otto'
p1483
I1
sS"it'"
p1484
I1
sS'spot-on'
p1485
I1
sS'heche'
p1486
I1
sS'events'
p1487
I1
sS'pan'
p1488
I3
sS'week'
p1489
I1
sS'noble'
p1490
I1
sS'finish'
p1491
I1
sS'closest'
p1492
I2
sS'disappoints'
p1493
I1
sS'oif'
p1494
I1
sS"darwell's"
p1495
I1
sS'concentrates'
p1496
I1
sS'drives'
p1497
I1
sS'director'
p1498
I7
sS"1930's"
p1499
I2
sS'favorites'
p1500
I5
sS'climbing'
p1501
I1
sS'totally'
p1502
I5
sS'tradition'
p1503
I4
sS'theater'
p1504
I1
sS'perennial'
p1505
I1
sS'irresistable'
p1506
I1
sS'flies'
p1507
I1
sS'no'
p1508
I38
sS'magical'
p1509
I6
sS'pacing'
p1510
I1
sS'without'
p1511
I24
sS"can't"
p1512
I12
sS'otherwise'
p1513
I3
sS'charged'
p1514
I1
sS'summer'
p1515
I2
sS'frankie'
p1516
I3
sS'plotline'
p1517
I1
sS'being'
p1518
I24
sS'money'
p1519
I6
sS'battleship'
p1520
I1
sS'asuperb'
p1521
I1
sS'actress'
p1522
I6
sS"'twenty"
p1523
I1
sS'slimy'
p1524
I1
sS'violent'
p1525
I1
sS'kill'
p1526
I4
sS'aspect'
p1527
I1
sS'touch'
p1528
I4
sS'polish'
p1529
I1
sS'guys'
p1530
I4
sS'captured'
p1531
I3
sS'halfway'
p1532
I2
sS'blow'
p1533
I1
sS'socialite'
p1534
I1
sS'death'
p1535
I2
sS'nick'
p1536
I2
sS'thinking'
p1537
I1
sS"everyone's"
p1538
I1
sS'seems'
p1539
I2
sS'except'
p1540
I1
sS'all-around'
p1541
I1
sS'beagle'
p1542
I1
sS'color'
p1543
I6
sS'setting'
p1544
I2
sS'watchable'
p1545
I2
sS'4'
p1546
I8
sS'engulfed'
p1547
I1
sS"leigh's"
p1548
I3
sS'real'
p1549
I12
sS'rushmore'
p1550
I4
sS'aspects'
p1551
I1
sS'around'
p1552
I12
sS'spectacular'
p1553
I1
sS'desperately'
p1554
I1
sS'read'
p1555
I1
sS'rugrat'
p1556
I1
sS'mop'
p1557
I1
sS'amd'
p1558
I1
sS'gonna'
p1559
I2
sS'dark'
p1560
I7
sS'test'
p1561
I1
sS'chainsaw'
p1562
I1
sS'mom'
p1563
I3
sS'symbolism'
p1564
I3
sS'world'
p1565
I14
sS'lady'
p1566
I1
sS'dare'
p1567
I1
sS'misquote'
p1568
I1
sS'patrick'
p1569
I1
sS'everytime'
p1570
I1
sS'sanity'
p1571
I1
sS'audience'
p1572
I7
sS'superiority'
p1573
I1
sS't'
p1574
I4
sS'fully'
p1575
I1
sS'trying'
p1576
I1
sS'respectives'
p1577
I1
sS'learning'
p1578
I1
sS'verbal'
p1579
I1
sS'exposed'
p1580
I3
sS'rendezous'
p1581
I1
sS'titan'
p1582
I2
sS'competition'
p1583
I1
sS'oscars'
p1584
I2
sS'michigan'
p1585
I1
sS'joad'
p1586
I3
sS'asthetics'
p1587
I1
sS'images'
p1588
I2
sS'racial'
p1589
I2
sS'joan'
p1590
I6
sS'thinks'
p1591
I1
sS'brothers'
p1592
I1
sS'mood'
p1593
I4
sS'luce'
p1594
I1
sS'memories'
p1595
I2
sS'beleagured'
p1596
I1
sS'toto'
p1597
I3
sS'slick'
p1598
I2
sS'unmatched'
p1599
I1
sS'moon'
p1600
I3
sS'provides'
p1601
I1
sS'dies'
p1602
I1
sS'baldwin'
p1603
I1
sS'refer'
p1604
I1
sS'caring'
p1605
I1
sS'kansas'
p1606
I2
sS'business'
p1607
I1
sS'gein'
p1608
I2
sS'seconds'
p1609
I1
sS'ingrid'
p1610
I5
sS'notable'
p1611
I1
sS'combines'
p1612
I1
sS'notably'
p1613
I1
sS'credits'
p1614
I1
sS'innocence'
p1615
I1
sS'1939'
p1616
I3
sS'exciting'
p1617
I6
sS'throw'
p1618
I1
sS"'the"
p1619
I1
sS'on'
p1620
I76
sS'classsic'
p1621
I1
sS'ok'
p1622
I5
sS'oh'
p1623
I7
sS'roar'
p1624
I1
sS'of'
p1625
I494
sS'violence'
p1626
I1
sS'favorite'
p1627
I31
sS'evah'
p1628
I1
sS'journey'
p1629
I1
sS'stand'
p1630
I5
sS'wise-cracking'
p1631
I1
sS'decent'
p1632
I1
sS'mixed'
p1633
I2
sS'gregory'
p1634
I13
sS'bond'
p1635
I3
sS'cowabunga'
p1636
I1
sS'or'
p1637
I40
sS'road'
p1638
I4
sS'exept'
p1639
I1
sS'ladies'
p1640
I1
sS'daphn'
p1641
I1
sS'blessed'
p1642
I1
sS'potemkin'
p1643
I1
sS'references'
p1644
I1
sS'portrayal'
p1645
I3
sS'valuable'
p1646
I1
sS'nowadays'
p1647
I1
sS'your'
p1648
I11
sS'vaughan'
p1649
I1
sS'wartime'
p1650
I1
sS'mandalay'
p1651
I1
sS'her'
p1652
I29
sS'whales'
p1653
I1
sS'there'
p1654
I52
sS'hey'
p1655
I2
sS'stark'
p1656
I2
sS'start'
p1657
I7
sS'betrayl'
p1658
I1
sS'cats'
p1659
I4
sS'racist'
p1660
I1
sS'low'
p1661
I3
sS'stars'
p1662
I8
sS'tink'
p1663
I1
sS'exceptional'
p1664
I2
sS'valley'
p1665
I1
sS'colorful'
p1666
I2
sS"home'"
p1667
I1
sS'complete'
p1668
I3
sS'enough'
p1669
I5
sS'teachings'
p1670
I1
sS'smuggling'
p1671
I1
sS'strikes'
p1672
I1
sS'enteraining'
p1673
I1
sS'stalag'
p1674
I1
sS'manipulative'
p1675
I1
sS'wholey'
p1676
I1
sS'gore'
p1677
I3
sS'curtain'
p1678
I1
sS'bugs'
p1679
I1
sS'with'
p1680
I110
sS'belated'
p1681
I1
sS'happening'
p1682
I1
sS'bryan'
p1683
I1
sS'rush'
p1684
I1
sS'tenage'
p1685
I1
sS'romantic'
p1686
I1
sS'rescuing'
p1687
I1
sS"wasn't"
p1688
I3
sS'tripe'
p1689
I1
sS'vhs'
p1690
I1
sS'freddy'
p1691
I1
sS'message'
p1692
I11
sS'dirty'
p1693
I2
sS'politically'
p1694
I1
sS'agree'
p1695
I3
sS'darker'
p1696
I1
sS'chaplin'
p1697
I1
sS'gone'
p1698
I5
sS'cinema'
p1699
I7
sS'certain'
p1700
I1
sS'describe'
p1701
I1
sS'am'
p1702
I14
sS'al'
p1703
I2
sS'deep'
p1704
I4
sS'general'
p1705
I3
sS'imagination'
p1706
I1
sS'as'
p1707
I150
sS'recommmend'
p1708
I1
sS'acheivement'
p1709
I1
sS'walks'
p1710
I1
sS'watched'
p1711
I10
sS'moves'
p1712
I2
sS'adventure-thriller'
p1713
I1
sS'film'
p1714
I125
sS'ice'
p1715
I2
sS'angelica'
p1716
I1
sS'again'
p1717
I21
sS'survivers'
p1718
I1
sS'wrtote'
p1719
I1
sS'deserve'
p1720
I1
sS'introspection'
p1721
I1
sS'radly'
p1722
I1
sS'unparalleled'
p1723
I1
sS'5'
p1724
I14
sS'you'
p1725
I105
sS'trash'
p1726
I1
sS'poor'
p1727
I1
sS'vocabulary'
p1728
I1
sS'shelter'
p1729
I1
sS'rallies'
p1730
I1
sS'forgot'
p1731
I1
sS'includes'
p1732
I2
sS'computerized'
p1733
I1
sS'important'
p1734
I6
sS'registry'
p1735
I1
sS'realised'
p1736
I1
sS'included'
p1737
I1
sS'13'
p1738
I1
sS'building'
p1739
I1
sS'ernie'
p1740
I1
sS'calls'
p1741
I1
sS'wife'
p1742
I2
sS'casts'
p1743
I1
sS'pre-civil'
p1744
I1
sS'mimic'
p1745
I1
sS'u'
p1746
I13
sS"1980's"
p1747
I1
sS'tense'
p1748
I1
sS'sensibility'
p1749
I1
sS'cross-cuts'
p1750
I1
sS'original'
p1751
I7
sS'represent'
p1752
I2
sS'all'
p1753
I121
sS'surrounded'
p1754
I1
sS'forget'
p1755
I7
sS'ceases'
p1756
I1
sS'caused'
p1757
I1
sS'devine'
p1758
I1
sS'feel--good'
p1759
I1
sS'follow'
p1760
I1
sS'achievment'
p1761
I1
sS'urbane'
p1762
I1
sS'mining'
p1763
I1
sS'children'
p1764
I13
sS'evicted'
p1765
I1
sS'shattered'
p1766
I1
sS'tv'
p1767
I3
sS'ilsa'
p1768
I2
sS'vs'
p1769
I2
sS'laughing'
p1770
I3
sS'to'
p1771
I346
sS'nora'
p1772
I1
sS'skip'
p1773
I1
sS'siblings'
p1774
I1
sS'^'
p1775
I2
sS'presentation'
p1776
I1
sS'ta'
p1777
I1
sS'sound'
p1778
I1
sS'woman'
p1779
I4
sS'returned'
p1780
I1
sS'song'
p1781
I7
sS'very'
p1782
I64
sS'horror'
p1783
I19
sS'translations'
p1784
I1
sS'fat'
p1785
I2
sS'full-color'
p1786
I1
sS'simpsons'
p1787
I1
sS'scout'
p1788
I8
sS'fan'
p1789
I8
sS'fall'
p1790
I3
sS'domilyn'
p1791
I1
sS'dapper'
p1792
I1
sS'difference'
p1793
I2
sS'fourth'
p1794
I2
sS'steve'
p1795
I1
sS'sant'
p1796
I1
sS'sentimental'
p1797
I1
sS'cable'
p1798
I1
sS'actioner'
p1799
I1
sS'unattainable'
p1800
I1
sS'list'
p1801
I5
sS'theaters'
p1802
I1
sS'large'
p1803
I3
sS'yugioh'
p1804
I2
sS'small'
p1805
I1
sS'louie'
p1806
I1
sS"i'll"
p1807
I1
sS'context'
p1808
I1
sS"hollywood's"
p1809
I2
sS'neighborhood'
p1810
I1
sS'grabs'
p1811
I1
sS'agan'
p1812
I1
sS'past'
p1813
I6
sS'rate'
p1814
I2
sS'design'
p1815
I1
sS'enhancement'
p1816
I1
sS'lawyer'
p1817
I3
sS'pass'
p1818
I1
sS'nbc'
p1819
I1
sS'appreciating'
p1820
I1
sS'casual'
p1821
I1
sS'belief'
p1822
I1
sS'conscience'
p1823
I1
sS'what'
p1824
I54
sS'stood'
p1825
I1
sS'darkness'
p1826
I2
sS'witnessed'
p1827
I1
sS'deeply'
p1828
I1
sS'magnolia'
p1829
I1
sS'movie-but'
p1830
I1
sS'brief'
p1831
I1
sS'emotions'
p1832
I1
sS'version'
p1833
I2
sS'attitudes'
p1834
I1
sS'cody'
p1835
I2
sS'superimposition'
p1836
I1
sS'movement'
p1837
I1
sS'layers'
p1838
I1
sS'full'
p1839
I7
sS'escaping'
p1840
I1
sS"c'mon"
p1841
I2
sS'portrays'
p1842
I1
sS'suicide'
p1843
I1
sS'situation'
p1844
I1
sS'epitome'
p1845
I1
sS'standard'
p1846
I1
sS'legend'
p1847
I2
sS'wacht'
p1848
I1
sS'fantasies'
p1849
I1
sS'search'
p1850
I3
sS'ahead'
p1851
I2
sS'inspired'
p1852
I3
sS'experience'
p1853
I1
sS'soldier'
p1854
I2
sS'amount'
p1855
I3
sS'arent'
p1856
I1
sS'shocked'
p1857
I1
sS'social'
p1858
I1
sS'action'
p1859
I12
sS'schtick'
p1860
I1
sS'must-see'
p1861
I5
sS'family'
p1862
I28
sS'ive'
p1863
I1
sS'suddenly'
p1864
I2
sS'1946'
p1865
I1
sS'excellently'
p1866
I1
sS'whinsical'
p1867
I1
sS'aimed'
p1868
I1
sS'trained'
p1869
I1
sS'pulls'
p1870
I1
sS'armed'
p1871
I1
sS'spawned'
p1872
I1
sS'flaws'
p1873
I2
sS'score'
p1874
I10
sS'trips'
p1875
I1
sS'intense'
p1876
I2
sS'revelation'
p1877
I2
sS'sub-par'
p1878
I1
sS'two'
p1879
I11
sS'goriness'
p1880
I1
sS'aplomb'
p1881
I1
sS'6'
p1882
I1
sS'mysterious'
p1883
I3
sS'raft'
p1884
I1
sS'branded'
p1885
I1
sS'minor'
p1886
I1
sS'more'
p1887
I30
sS'revolutionary'
p1888
I3
sS'toungue-in-cheek'
p1889
I1
sS'company'
p1890
I1
sS"family's"
p1891
I1
sS'floyd'
p1892
I1
sS"ain't"
p1893
I1
sS'basically'
p1894
I1
sS'particular'
p1895
I1
sS'known'
p1896
I4
sS'gogh'
p1897
I1
sS'uncool'
p1898
I1
sS'glad'
p1899
I4
sS'town'
p1900
I9
sS'helped'
p1901
I3
sS'none'
p1902
I2
sS'hour'
p1903
I4
sS'strain'
p1904
I1
sS'sucks'
p1905
I1
sS'patriarch'
p1906
I1
sS'remain'
p1907
I1
sS"'heartwarming'"
p1908
I1
sS'hero'
p1909
I4
sS'learn'
p1910
I6
sS'channel'
p1911
I1
sS'mockingbird'
p1912
I1
sS'history'
p1913
I8
sS'beautiful'
p1914
I11
sS'shark'
p1915
I1
sS'tear-jerker'
p1916
I1
sS'joints'
p1917
I1
sS'share'
p1918
I2
sS'accept'
p1919
I1
sS'terrible'
p1920
I1
sS'sense'
p1921
I6
sS'robinson'
p1922
I2
sS'!'
p1923
I256
sS'huge'
p1924
I2
sS'needs'
p1925
I1
sS'csi'
p1926
I2
sS'desperation'
p1927
I2
sS'rather'
p1928
I4
sS'acts'
p1929
I1
sS'thumbs'
p1930
I1
sS'family-friendly'
p1931
I1
sS'worry'
p1932
I1
sS'surpasses'
p1933
I1
sS'veidt'
p1934
I3
sS'ensemble'
p1935
I3
sS'conceived'
p1936
I1
sS'either'
p1937
I3
sS'okay'
p1938
I3
sS'intended'
p1939
I2
sS'suppose'
p1940
I1
sS'different'
p1941
I5
sS'never-ending'
p1942
I1
sS'soundtrack'
p1943
I10
sS'replace'
p1944
I1
sS'plane'
p1945
I1
sS'lighting'
p1946
I1
sS'adventure'
p1947
I4
sS'coming'
p1948
I3
sS'pyschological'
p1949
I1
sS'ethics'
p1950
I1
sS'inconceivable'
p1951
I1
sS'nonetheless'
p1952
I1
sS'a'
p1953
I539
sS'imagery'
p1954
I1
sS'onto'
p1955
I1
sS'quoted'
p1956
I1
sS'eats'
p1957
I1
sS'perhaps'
p1958
I3
sS'gadgets'
p1959
I1
sS'banks'
p1960
I1
sS'victors'
p1961
I1
sS'dream'
p1962
I2
sS'playing'
p1963
I2
sS"that's"
p1964
I3
sS'greats'
p1965
I3
sS'passages'
p1966
I1
sS'help'
p1967
I9
sS'leigh'
p1968
I7
sS"don't"
p1969
I34
sS'winged'
p1970
I2
sS'reminded'
p1971
I2
sS'mission'
p1972
I1
sS"lipnicki's"
p1973
I1
sS'mixing'
p1974
I1
sS'already'
p1975
I4
sS'through'
p1976
I18
sS'hell'
p1977
I1
sS'kinetic'
p1978
I1
sS'its'
p1979
I43
sS'heinreid'
p1980
I2
sS'unleashing'
p1981
I1
sS'rapidly'
p1982
I1
sS'call'
p1983
I2
sS'actually'
p1984
I7
sS'capote'
p1985
I1
sS'harmless'
p1986
I1
sS'parts'
p1987
I1
sS'might'
p1988
I2
sS"haven't"
p1989
I3
sS"steiner's"
p1990
I2
sS'pierre'
p1991
I1
sS'good'
p1992
I55
sS'sisters'
p1993
I2
sS'disrespectful'
p1994
I1
sS'food'
p1995
I1
sS'sucker'
p1996
I1
sS'anticipated'
p1997
I2
sS'ninja'
p1998
I1
sS'viewers'
p1999
I1
sS'sucked'
p2000
I2
sS'mystery'
p2001
I4
sS'easily'
p2002
I2
sS'wash'
p2003
I1
sS'always'
p2004
I25
sS'tear'
p2005
I2
sS'goofy'
p2006
I1
sS'extravaganza'
p2007
I1
sS'turns'
p2008
I3
sS'found'
p2009
I4
sS'shocking'
p2010
I1
sS'friendship'
p2011
I3
sS'cousins'
p2012
I1
sS"isn't"
p2013
I11
sS'heavy'
p2014
I2
sS'reactions'
p2015
I1
sS'harm'
p2016
I1
sS'everyone'
p2017
I18
sS'annother'
p2018
I1
sS'generation'
p2019
I2
sS'house'
p2020
I3
sS'energy'
p2021
I1
sS'hard'
p2022
I2
sS'idea'
p2023
I5
sS'expect'
p2024
I4
sS'beyond'
p2025
I1
sS'event'
p2026
I3
sS'really'
p2027
I27
sS'cynicism'
p2028
I1
sS'deals'
p2029
I1
sS'vertigo'
p2030
I4
sS'missed'
p2031
I3
sS'blacks'
p2032
I1
sS'robert'
p2033
I7
sS'since'
p2034
I12
sS'mattered'
p2035
I1
sS'acting'
p2036
I26
sS'eyeteeth'
p2037
I1
sS'hill'
p2038
I1
sS'7'
p2039
I1
sS"gower's"
p2040
I2
sS'callmetootie'
p2041
I1
sS'ass'
p2042
I2
sS'definately'
p2043
I1
sS'wisconsin'
p2044
I1
sS'bass'
p2045
I1
sS'demure'
p2046
I1
sS'friday'
p2047
I1
sS'dipstick'
p2048
I1
sS'extraordinary'
p2049
I1
sS'reason'
p2050
I2
sS'base'
p2051
I1
sS'poignantly'
p2052
I2
sS'dire'
p2053
I1
sS'imagine'
p2054
I1
sS'put'
p2055
I6
sS'wwii-era'
p2056
I1
sS'beginning'
p2057
I4
sS'guy'
p2058
I2
sS'bushes'
p2059
I1
sS'driven'
p2060
I1
sS'service'
p2061
I1
sS'positioning'
p2062
I1
sS'intence'
p2063
I1
sS"year's"
p2064
I1
sS'american'
p2065
I15
sS'prejudice'
p2066
I2
sS'w'
p2067
I3
sS'testament'
p2068
I3
sS'neglected'
p2069
I1
sS'amanda'
p2070
I2
sS'major'
p2071
I1
sS'dont'
p2072
I3
sS'stabs'
p2073
I1
sS'wilder'
p2074
I2
sS'feel'
p2075
I12
sS'relate'
p2076
I1
sS'sydney'
p2077
I1
sS'number'
p2078
I2
sS'sympathy'
p2079
I1
sS'done'
p2080
I20
sS'effortless'
p2081
I1
sS'slower'
p2082
I1
sS'miss'
p2083
I6
sS'stage'
p2084
I1
sS'voiceovers'
p2085
I1
sS'story'
p2086
I56
sS'"'
p2087
I15
sS'script'
p2088
I6
sS'leading'
p2089
I2
sS'smoother'
p2090
I1
sS'shooting'
p2091
I1
sS'least'
p2092
I7
sS'se7en'
p2093
I1
sS'belongs'
p2094
I1
sS'180'
p2095
I1
sS'wonderful'
p2096
I31
sS'saint'
p2097
I5
sS'attials'
p2098
I1
sS'master'
p2099
I6
sS'hundred'
p2100
I2
sS'store'
p2101
I1
sS'too'
p2102
I19
sS'treasured'
p2103
I1
sS'passed'
p2104
I1
sS'relationship'
p2105
I2
sS'helloooo'
p2106
I1
sS'norma'
p2107
I8
sS'hotel'
p2108
I1
sS'park'
p2109
I1
sS'immediate'
p2110
I1
sS'appreciation'
p2111
I1
sS'part'
p2112
I11
sS'horrifically'
p2113
I1
sS'focusing'
p2114
I1
sS'gruesome'
p2115
I1
sS'believe'
p2116
I10
sS'endlessly'
p2117
I1
sS'reflection'
p2118
I1
sS'king'
p2119
I1
sS'kind'
p2120
I4
sS'b'
p2121
I2
sS'tooth'
p2122
I2
sS'gotten'
p2123
I2
sS'pc'
p2124
I1
sS'goddard'
p2125
I1
sS'defends'
p2126
I1
sS'utopia'
p2127
I1
sS'determined'
p2128
I1
sS'damnit'
p2129
I1
sS'supposed'
p2130
I3
sS'jem'
p2131
I3
sS'treated'
p2132
I1
sS'mickey'
p2133
I1
sS'boland'
p2134
I1
sS'nominee'
p2135
I1
sS'outstanding'
p2136
I7
sS'wasnt'
p2137
I1
sS'concludes'
p2138
I1
sS'ages'
p2139
I6
sS'gale'
p2140
I2
sS'well-written'
p2141
I2
sS'alike'
p2142
I1
sS'showers'
p2143
I1
sS'sequal'
p2144
I1
sS'aged'
p2145
I3
sS'comiding'
p2146
I1
sS'karl'
p2147
I1
sS'lie'
p2148
I3
sS'wilson'
p2149
I1
sS'belting'
p2150
I1
sS'self'
p2151
I1
sS'priestess'
p2152
I1
sS'oakies'
p2153
I1
sS'makers'
p2154
I1
sS'also'
p2155
I22
sS'build'
p2156
I4
sS'obviously'
p2157
I1
sS'finding'
p2158
I2
sS'commentary'
p2159
I1
sS'monkingbird'
p2160
I1
sS'well-directed'
p2161
I1
sS'play'
p2162
I7
sS'added'
p2163
I2
sS'godfather'
p2164
I1
sS'quote'
p2165
I2
sS'eggs'
p2166
I1
sS'paulette'
p2167
I1
sS'reach'
p2168
I1
sS'depths'
p2169
I2
sS'most'
p2170
I52
sS'charm'
p2171
I1
sS'plan'
p2172
I4
sS'significant'
p2173
I1
sS"cinema's"
p2174
I2
sS'nothing'
p2175
I4
sS"'suspend"
p2176
I1
sS'extremely'
p2177
I3
sS'henson'
p2178
I1
sS'muscle'
p2179
I1
sS'performances'
p2180
I10
sS'sometimes'
p2181
I4
sS'doubts'
p2182
I1
sS'tosee'
p2183
I1
sS'forerunner'
p2184
I1
sS'storyline'
p2185
I5
sS'clean'
p2186
I1
sS'anthem'
p2187
I1
sS'notch'
p2188
I3
sS'particularly'
p2189
I3
sS'rebels'
p2190
I1
sS'stunned'
p2191
I1
sS'journeys'
p2192
I1
sS'blended'
p2193
I1
sS'fond'
p2194
I1
sS'book-to-movie'
p2195
I1
sS'aghast'
p2196
I1
sS'finn'
p2197
I1
sS'chock'
p2198
I1
sS'fine'
p2199
I6
sS'find'
p2200
I10
sS'impact'
p2201
I4
sS'giant'
p2202
I3
sS'rocket'
p2203
I1
sS'copyright'
p2204
I1
sS'consistently'
p2205
I1
sS'justice'
p2206
I2
sS'nervous'
p2207
I1
sS'hope'
p2208
I4
sS'percisely'
p2209
I1
sS'pretty'
p2210
I6
sS'8'
p2211
I2
sS'circle'
p2212
I1
sS'counterpoint'
p2213
I1
sS'his'
p2214
I63
sS'publicity'
p2215
I1
sS'meanwhile'
p2216
I2
sS'famous'
p2217
I6
sS'feels'
p2218
I4
sS'grew'
p2219
I2
sS'rest'
p2220
I6
sS'closely'
p2221
I2
sS'during'
p2222
I15
sS'frightening'
p2223
I4
sS'him'
p2224
I19
sS'dustin'
p2225
I2
sS'resolve'
p2226
I1
sS'immerse'
p2227
I2
sS'contagious'
p2228
I1
sS'millenium'
p2229
I1
sS'stirling'
p2230
I1
sS'nickelodeon'
p2231
I1
sS'truely'
p2232
I1
sS'recollection'
p2233
I1
sS'cartoons'
p2234
I1
sS'witches'
p2235
I2
sS'nominate'
p2236
I1
sS'hype'
p2237
I1
sS'x'
p2238
I1
sS'river'
p2239
I1
sS'employer'
p2240
I1
sS'wrote'
p2241
I1
sS'life-long'
p2242
I1
sS'delicately'
p2243
I1
sS'set'
p2244
I1
sS'art'
p2245
I4
sS'stuters'
p2246
I1
sS'cynical'
p2247
I3
sS'bitterness'
p2248
I1
sS'culture'
p2249
I3
sS'lion'
p2250
I6
sS'defense'
p2251
I1
sS'dumb'
p2252
I1
sS'are'
p2253
I80
sS'close'
p2254
I4
sS'airplans'
p2255
I1
sS'project'
p2256
I2
sS'#'
p2257
I2
sS'crushing'
p2258
I1
sS'pokemon'
p2259
I4
sS'visiting'
p2260
I1
sS'movie'
p2261
I367
sS'arbogast'
p2262
I1
sS'fans'
p2263
I2
sS'won'
p2264
I4
sS'probably'
p2265
I12
sS'numerous'
p2266
I2
sS'sexual'
p2267
I1
sS'hardship'
p2268
I1
sS'missing'
p2269
I1
sS'masterful'
p2270
I2
sS'sole'
p2271
I1
sS"rushmore's"
p2272
I1
sS're-make'
p2273
I1
sS'genre'
p2274
I3
sS'both'
p2275
I9
sS'c'
p2276
I4
sS'cubes'
p2277
I2
sS'last'
p2278
I10
sS'hesitant'
p2279
I1
sS'restaurant'
p2280
I1
sS'influential'
p2281
I2
sS"wouldn't"
p2282
I2
sS'hint'
p2283
I2
sS'adored'
p2284
I1
sS'became'
p2285
I3
sS'alot'
p2286
I4
sS'focused'
p2287
I1
sS'mean'
p2288
I1
sS'whole'
p2289
I11
sS'finds'
p2290
I5
sS'cynic'
p2291
I1
sS'load'
p2292
I1
sS'liked'
p2293
I4
sS'distress'
p2294
I1
sS'point'
p2295
I5
sS'simple'
p2296
I2
sS'sweet'
p2297
I3
sS'acted'
p2298
I7
sS'paxton'
p2299
I1
sS'community'
p2300
I1
sS'dimensional'
p2301
I1
sS'deceit'
p2302
I1
sS'acclaim'
p2303
I1
sS'simply'
p2304
I8
sS'likes'
p2305
I1
sS'sexy'
p2306
I1
sS'weblists'
p2307
I1
sS'gavin'
p2308
I1
sS'throughout'
p2309
I6
sS'acter'
p2310
I1
sS'['
p2311
I1
sS'startling'
p2312
I1
sS'invented'
p2313
I1
sS'described'
p2314
I1
sS'storytelling'
p2315
I1
sS'celluloid'
p2316
I1
sS'create'
p2317
I2
sS'acceptance'
p2318
I1
sS'political'
p2319
I2
sS'due'
p2320
I3
sS'oklohoma'
p2321
I1
sS'whom'
p2322
I3
sS'secret'
p2323
I1
sS'goobers'
p2324
I2
sS'pg'
p2325
I2
sS'brick'
p2326
I4
sS'meeting'
p2327
I1
sS'dame'
p2328
I1
sS'dialogue'
p2329
I10
sS'lived'
p2330
I3
sS'partly'
p2331
I1
sS'1950s'
p2332
I1
sS'gay'
p2333
I1
sS'packs'
p2334
I1
sS"what's"
p2335
I2
sS'else'
p2336
I4
sS'anthony'
p2337
I7
sS'lives'
p2338
I6
sS'realms'
p2339
I1
sS'towns'
p2340
I1
sS"40's"
p2341
I1
sS'intriguing'
p2342
I1
sS'hitchcock'
p2343
I35
sS'utmost'
p2344
I1
sS'look'
p2345
I8
sS'talking'
p2346
I3
sS'frozen'
p2347
I1
sS'leave'
p2348
I1
sS'bill'
p2349
I2
sS'sesame'
p2350
I1
sS'pace'
p2351
I2
sS'while'
p2352
I13
sS'fuc'
p2353
I1
sS'fun'
p2354
I15
sS'mordant'
p2355
I1
sS'animated'
p2356
I4
sS'robin'
p2357
I2
sS'eeriness'
p2358
I1
sS'grip'
p2359
I1
sS'larger'
p2360
I1
sS'hoping'
p2361
I1
sS'century'
p2362
I1
sS'backing'
p2363
I1
sS'antithesis'
p2364
I1
sS'36'
p2365
I1
sS'itself'
p2366
I3
sS'beautifully'
p2367
I2
sS'ready'
p2368
I1
sS'chase'
p2369
I1
sS'funny'
p2370
I20
sS'lengthy'
p2371
I1
sS'kwai'
p2372
I1
sS'anymore'
p2373
I5
sS'grant'
p2374
I7
sS'sastsified'
p2375
I1
sS'rules'
p2376
I2
sS'vulnerable'
p2377
I1
sS'shearer'
p2378
I2
sS'9'
p2379
I3
sS'higher'
p2380
I1
sS'dooley'
p2381
I1
sS'used'
p2382
I8
sS'temporary'
p2383
I1
sS'keys'
p2384
I1
sS'rhein'
p2385
I1
sS'holidays'
p2386
I3
sS'patriotic'
p2387
I1
sS'viewing'
p2388
I2
sS'000'
p2389
I2
sS'moving'
p2390
I3
sS'purpose'
p2391
I1
sS'weird'
p2392
I1
sS'recent'
p2393
I2
sS'early'
p2394
I5
sS'travers'
p2395
I2
sS'tales'
p2396
I2
sS'wide-range'
p2397
I1
sS'magnified'
p2398
I1
sS'person'
p2399
I2
sS'edge'
p2400
I1
sS"hermann's"
p2401
I2
sS"'magic'"
p2402
I1
sS'landmark'
p2403
I1
sS'entry'
p2404
I1
sS'chemistry'
p2405
I2
sS'myseterious'
p2406
I1
sS'spend'
p2407
I1
sS'temperamental'
p2408
I1
sS'know'
p2409
I16
sS'1960'
p2410
I3
sS'quarters'
p2411
I1
sS'shape'
p2412
I1
sS'hilarie'
p2413
I1
sS'using'
p2414
I2
sS'regardless'
p2415
I1
sS'alternative'
p2416
I1
sS'fairy'
p2417
I3
sS'helping'
p2418
I1
sS'$'
p2419
I2
sS'hated'
p2420
I1
sS'cuz'
p2421
I2
sS'source'
p2422
I1
sS'gadgetry'
p2423
I1
sS'parents'
p2424
I5
sS'crying'
p2425
I1
sS'easter'
p2426
I1
sS'excited'
p2427
I1
sS'surprised'
p2428
I1
sS'useless'
p2429
I1
sS'format'
p2430
I1
sS'big'
p2431
I7
sS'showing'
p2432
I4
sS'matters'
p2433
I2
sS'americians'
p2434
I1
sS'quest'
p2435
I1
sS'culturally'
p2436
I1
sS"stewart's"
p2437
I1
sS'crisp'
p2438
I4
sS'entrenched'
p2439
I1
sS'projects'
p2440
I1
sS'helpful'
p2441
I1
sS'oklahomans'
p2442
I1
sS'd'
p2443
I1
sS'spine'
p2444
I2
sS'follows'
p2445
I1
sS'facets'
p2446
I1
sS'chest'
p2447
I1
sS'manifest'
p2448
I1
sS'continue'
p2449
I1
sS'provoking'
p2450
I1
sS'donna'
p2451
I4
sS'bogie'
p2452
I2
sS'popular'
p2453
I3
sS'stylish'
p2454
I2
sS'buff'
p2455
I1
sS'essential'
p2456
I2
sS'partying'
p2457
I1
sS'often'
p2458
I3
sS'absolutely'
p2459
I8
sS'30s'
p2460
I1
sS'some'
p2461
I20
sS'back'
p2462
I14
sS'baci'
p2463
I1
sS'work-the'
p2464
I1
sS'towards'
p2465
I1
sS'examples'
p2466
I1
sS'sight'
p2467
I1
sS'candle'
p2468
I1
sS'ourselves'
p2469
I1
sS'delivered'
p2470
I1
sS'reruns'
p2471
I1
sS'boasts'
p2472
I1
sS'shall'
p2473
I1
sS'per'
p2474
I2
sS'pounding'
p2475
I1
sS'anne'
p2476
I1
sS'slapstick'
p2477
I2
sS'temple'
p2478
I1
sS'nose'
p2479
I1
sS'be'
p2480
I67
sS'run'
p2481
I3
sS'remembered'
p2482
I2
sS'constanly'
p2483
I1
sS'costumes'
p2484
I4
sS'step'
p2485
I1
sS'stew'
p2486
I1
sS'santa'
p2487
I2
sS'rellay'
p2488
I1
sS'refuses'
p2489
I1
sS'taboo'
p2490
I1
sS'by'
p2491
I82
sS'dormant'
p2492
I1
sS'faith'
p2493
I2
sS'conrad'
p2494
I2
sS'anything'
p2495
I4
sS'tortuous'
p2496
I1
sS'drama'
p2497
I5
sS'deserves'
p2498
I5
sS'range'
p2499
I2
sS'involving'
p2500
I1
sS'dialog'
p2501
I1
sS'stuart'
p2502
I2
sS'resistence'
p2503
I1
sS"capra's"
p2504
I2
sS'classics'
p2505
I3
sS'wanna'
p2506
I3
sS'bloch'
p2507
I1
sS'revote'
p2508
I1
sS'ppl'
p2509
I1
sS'seeing'
p2510
I12
sS'jimmy'
p2511
I9
sS'eaten'
p2512
I1
sS'garbage'
p2513
I1
sS'dude'
p2514
I1
sS'into'
p2515
I25
sS'within'
p2516
I1
sS'momma'
p2517
I1
sS'steven'
p2518
I1
sS'lesson'
p2519
I2
sS'unown'
p2520
I1
sS'computer'
p2521
I3
sS'eleven'
p2522
I1
sS"lean's"
p2523
I1
sS'ew'
p2524
I1
sS'question'
p2525
I2
sS'long'
p2526
I8
sS'clocks'
p2527
I1
sS'shot-for-shot'
p2528
I1
sS'camera'
p2529
I1
sS"we're"
p2530
I2
sS':'
p2531
I31
sS'errant'
p2532
I1
sS'himself'
p2533
I4
sS'an'
p2534
I76
sS'frenzied'
p2535
I2
sS'lino'
p2536
I1
sS'boys'
p2537
I2
sS"30's"
p2538
I1
sS'reed'
p2539
I4
sS'repeatedly'
p2540
I1
sS'subtly'
p2541
I1
sS'crane'
p2542
I5
sS'dull'
p2543
I2
sS'directed'
p2544
I4
sS'graetful'
p2545
I1
sS'up'
p2546
I39
sS'us'
p2547
I8
sS'ur'
p2548
I3
sS'all--amazing'
p2549
I1
sS'morocco'
p2550
I3
sS'exploration'
p2551
I1
sS'psychologically'
p2552
I1
sS'doggie'
p2553
I1
sS'loving'
p2554
I2
sS'similar'
p2555
I1
sS'called'
p2556
I3
sS'dill'
p2557
I4
sS'v'
p2558
I2
sS'adults'
p2559
I4
sS'goodly'
p2560
I1
sS'admire'
p2561
I1
sS'midwest'
p2562
I1
sS'single'
p2563
I2
sS'thier'
p2564
I1
sS'defines'
p2565
I2
sS'rainbow'
p2566
I3
sS'streamlining'
p2567
I1
sS'%'
p2568
I1
sS'peach'
p2569
I2
sS'rains'
p2570
I3
sS'edwards'
p2571
I1
sS'fears'
p2572
I1
sS'occasional'
p2573
I1
sS'excuses'
p2574
I1
sS'parlor'
p2575
I1
sS'definitely'
p2576
I11
sS'actors'
p2577
I11
sS'department'
p2578
I1
sS'overly'
p2579
I1
sS'nice'
p2580
I7
sS'fights'
p2581
I1
sS'draw'
p2582
I1
sS'elements'
p2583
I3
sS'wrongly'
p2584
I2
sS'calculating'
p2585
I1
sS'symbollism'
p2586
I1
sS'favourite'
p2587
I1
sS'u-turn'
p2588
I1
sS'understatement'
p2589
I1
sS'problems'
p2590
I1
sS'william'
p2591
I9
sS'meaning'
p2592
I3
sS'allowing'
p2593
I1
sS'utterly'
p2594
I4
sS'kenai'
p2595
I1
sS"mackenzie's"
p2596
I1
sS'ago'
p2597
I1
sS"bogart's"
p2598
I1
sS'land'
p2599
I4
sS'e'
p2600
I4
sS'disbelief'
p2601
I1
sS'practically'
p2602
I1
sS'dvd'
p2603
I4
sS'age'
p2604
I7
sS'required'
p2605
I1
sS'backed'
p2606
I1
sS'moment'
p2607
I2
sS'depth'
p2608
I2
sS'lazlo'
p2609
I1
sS'presenting'
p2610
I1
sS'2005'
p2611
I1
sS'far'
p2612
I4
sS"she's"
p2613
I1
sS'underrated'
p2614
I4
sS'menace'
p2615
I1
sS'having'
p2616
I5
sS'nestegg'
p2617
I1
sS'once'
p2618
I11
sS'portraying'
p2619
I1
sS'viewings'
p2620
I1
sS'illustrates'
p2621
I1
sS'melts'
p2622
I1
sS'hooks'
p2623
I2
sS'totem'
p2624
I1
sS'inspiringmovie'
p2625
I1
sS'enjoyable'
p2626
I3
sS'stops'
p2627
I2
sS'go'
p2628
I16
sS'psycho'
p2629
I24
sS'cases'
p2630
I1
sS'issues'
p2631
I2
sS'seemed'
p2632
I1
sS'breached'
p2633
I1
sS'gold'
p2634
I1
sS'uphold'
p2635
I1
sS'iii'
p2636
I1
sS'concerned'
p2637
I1
sS'wizard'
p2638
I16
sS'young'
p2639
I7
sS"joads'"
p2640
I2
sS'literary'
p2641
I1
sS'lower'
p2642
I1
sS'uniqueness'
p2643
I1
sS'helps'
p2644
I1
sS'small-town'
p2645
I1
sS'pleasing'
p2646
I1
sS'wished'
p2647
I1
sS'murderous'
p2648
I1
sS'automotive'
p2649
I1
sS'continues'
p2650
I1
sS'account'
p2651
I1
sS'miners'
p2652
I1
sS'wishes'
p2653
I1
sS'putting'
p2654
I1
sS'moroccan'
p2655
I1
sS'tinman'
p2656
I2
sS'telling'
p2657
I2
sS'yourselves'
p2658
I1
sS'retold'
p2659
I1
sS'entire'
p2660
I2
sS'magic'
p2661
I2
sS'fast-paced'
p2662
I1
sS'eva'
p2663
I2
sS'shock'
p2664
I3
sS'michael'
p2665
I2
sS'eve'
p2666
I1
sS'ryan'
p2667
I1
sS'try'
p2668
I5
sS'tunnel'
p2669
I1
sS'race'
p2670
I3
sS'villians'
p2671
I1
sS'populism'
p2672
I1
sS"norma's"
p2673
I1
sS'strongly'
p2674
I1
sS'oddball'
p2675
I1
sS'visuals'
p2676
I2
sS'boots'
p2677
I1
sS'jump'
p2678
I1
sS'rampages'
p2679
I1
sS'video'
p2680
I1
sS'booth'
p2681
I1
sS'animalsetc'
p2682
I1
sS'notwithstanding'
p2683
I1
sS"hammett's"
p2684
I1
sS'odd'
p2685
I3
sS'click'
p2686
I1
sS'depression'
p2687
I6
sS'victor'
p2688
I1
sS'plays'
p2689
I8
sS'power'
p2690
I3
sS'junior'
p2691
I1
sS'colonel'
p2692
I2
sS'hitchcocks'
p2693
I1
sS'kudos'
p2694
I1
sS'bergman'
p2695
I11
sS'expressed'
p2696
I1
sS"man's"
p2697
I1
sS'laurence'
p2698
I1
sS'waiting'
p2699
I1
sS'twins'
p2700
I1
sS'expresses'
p2701
I1
sS';'
p2702
I13
sS'nazis'
p2703
I4
sS'scenery'
p2704
I2
sS'toast'
p2705
I1
sS'focuses'
p2706
I1
sS'led'
p2707
I1
sS'jennings'
p2708
I1
sS'10-02-80'
p2709
I1
sS'commercial'
p2710
I1
sS'denizen'
p2711
I1
sS'following'
p2712
I1
sS'let'
p2713
I4
sS'others'
p2714
I11
sS'sing'
p2715
I1
sS'roof'
p2716
I1
sS"plane's"
p2717
I1
sS'extreme'
p2718
I1
sS'great'
p2719
I167
sS'talent'
p2720
I3
sS'technical'
p2721
I2
sS'involved'
p2722
I2
sS'30'
p2723
I3
sS'murdered'
p2724
I2
sS'35'
p2725
I1
sS'herrmann'
p2726
I1
sS'suggests'
p2727
I1
sS'olivier'
p2728
I2
sS'opinion'
p2729
I5
sS'makes'
p2730
I17
sS'honor'
p2731
I2
sS'involves'
p2732
I1
sS'thats'
p2733
I1
sS'named'
p2734
I5
sS'heart'
p2735
I3
sS'clare'
p2736
I1
sS'win'
p2737
I2
sS'black-and-white'
p2738
I2
sS'manage'
p2739
I1
sS'private'
p2740
I1
sS'gimmick'
p2741
I1
sS'singing'
p2742
I5
sS'staple'
p2743
I1
sS'use'
p2744
I4
sS'from'
p2745
I48
sS'usa'
p2746
I1
sS'&'
p2747
I4
sS'remains'
p2748
I1
sS'next'
p2749
I5
sS'few'
p2750
I14
sS'duplicate'
p2751
I1
sS'doubt'
p2752
I4
sS'scariest'
p2753
I2
sS'portayal'
p2754
I1
sS'themselves'
p2755
I1
sS'gizmos'
p2756
I1
sS'reflects'
p2757
I1
sS'touched'
p2758
I1
sS'sort'
p2759
I1
sS'babe'
p2760
I1
sS'started'
p2761
I2
sS'becomes'
p2762
I3
sS'occurred'
p2763
I1
sS'wildly'
p2764
I1
sS'charming'
p2765
I1
sS'train'
p2766
I1
sS'labelled'
p2767
I1
sS'baby'
p2768
I1
sS'pocahontas'
p2769
I1
sS'women'
p2770
I4
sS'escaped'
p2771
I1
sS"psycho's"
p2772
I2
sS'animals'
p2773
I6
sS'f'
p2774
I1
sS'this'
p2775
I314
sS'lapse'
p2776
I2
sS'non-human'
p2777
I1
sS'unreal'
p2778
I1
sS'obvious'
p2779
I1
sS'thin'
p2780
I1
sS'praise'
p2781
I2
sS'industrial'
p2782
I1
sS'meet'
p2783
I3
sS'closing'
p2784
I1
sS'drops'
p2785
I1
sS'didnt'
p2786
I2
sS'institute'
p2787
I1
sS'blaine'
p2788
I1
sS'control'
p2789
I1
sS'escapes'
p2790
I1
sS'process'
p2791
I1
sS'halloween'
p2792
I1
sS'villian'
p2793
I2
sS'high'
p2794
I4
sS'tag'
p2795
I1
sS'pulling'
p2796
I1
sS'something'
p2797
I13
sS'hit'
p2798
I3
sS'serial'
p2799
I1
sS'cowardly'
p2800
I2
sS'sir'
p2801
I1
sS'daring'
p2802
I1
sS'struggles'
p2803
I1
sS'fortunate'
p2804
I1
sS'regions'
p2805
I1
sS'animal'
p2806
I1
sS'instead'
p2807
I1
sS'comedy'
p2808
I5
sS'intelligent'
p2809
I1
sS'reaffirms'
p2810
I1
sS'oz'
p2811
I19
sS'profile'
p2812
I1
sS'tension'
p2813
I2
sS'smut'
p2814
I1
sS'farm'
p2815
I2
sS'stop'
p2816
I4
sS'masterpieces'
p2817
I1
sS'collection'
p2818
I1
sS'ties'
p2819
I1
sS'afi'
p2820
I1
sS'ambiguous'
p2821
I1
sS'realized'
p2822
I4
sS'discusses'
p2823
I1
sS'purely'
p2824
I1
sS"they'd"
p2825
I1
sS'light'
p2826
I1
sS'lines'
p2827
I6
sS'element'
p2828
I1
sS'wwii'
p2829
I2
sS'crazed'
p2830
I1
sS'honestly'
p2831
I2
sS'realizes'
p2832
I1
sS"its'"
p2833
I1
sS'favourites'
p2834
I1
sS'jolie'
p2835
I1
sS'transformation'
p2836
I1
sS'ignite'
p2837
I1
sS'ha'
p2838
I1
sS'theft'
p2839
I1
sS'move'
p2840
I3
sS'damsel'
p2841
I1
sS'produced'
p2842
I1
sS'own'
p2843
I4
sS"won't"
p2844
I2
sS'costume'
p2845
I1
sS"george's"
p2846
I1
sS"kinda'"
p2847
I1
sS'agricultural'
p2848
I1
sS"peck's"
p2849
I2
sS'shooes'
p2850
I1
sS'bunch'
p2851
I1
sS'perfect'
p2852
I23
sS'superior'
p2853
I1
sS'revived'
p2854
I1
sS"'somewhere"
p2855
I1
sS'chosen'
p2856
I1
sS'send'
p2857
I4
sS'nostalgia'
p2858
I2
sS'permanent'
p2859
I1
sS'total'
p2860
I1
sS'holiday'
p2861
I4
sS'defining'
p2862
I1
sS'dad'
p2863
I2
sS'crash'
p2864
I1
sS'pure'
p2865
I2
sS'material'
p2866
I1
sS'landau'
p2867
I2
sS'mention'
p2868
I1
sS'cutting'
p2869
I1
sS'legendary'
p2870
I3
sS'hands'
p2871
I1
sS'trade'
p2872
I1
sS"herrmann's"
p2873
I1
sS'day'
p2874
I8
sS'creators'
p2875
I1
sS'bewilderment'
p2876
I1
sS'speaks'
p2877
I2
sS'humour'
p2878
I1
sS'dominance'
p2879
I1
sS'billy'
p2880
I1
sS'delightful'
p2881
I1
sS'truth'
p2882
I1
sS'beneath'
p2883
I1
sS'grafics'
p2884
I1
sS'warner'
p2885
I1
sS'cry'
p2886
I3
sS'doing'
p2887
I3
sS'timeless'
p2888
I8
sS'related'
p2889
I1
sS'society'
p2890
I4
sS'voilent'
p2891
I1
sS'books'
p2892
I2
sS'variety'
p2893
I1
sS'our'
p2894
I19
sS'tenth'
p2895
I1
sS'87'
p2896
I1
sS'special'
p2897
I6
sS'out'
p2898
I39
sS'sacrifices'
p2899
I1
sS'entertainment'
p2900
I4
sS'monumental'
p2901
I1
sS'critics'
p2902
I2
sS'hilarious'
p2903
I1
sS'honorable'
p2904
I1
sS'intervention'
p2905
I1
sS'cause'
p2906
I6
sS'eva-marie'
p2907
I2
sS"one's"
p2908
I2
sS'interactions'
p2909
I1
sS'frank'
p2910
I5
sS'ben-hur'
p2911
I1
sS'tempo'
p2912
I1
sS'nephew'
p2913
I1
sS'completely'
p2914
I2
sS'ect'
p2915
I1
sS'surely'
p2916
I2
sS'york'
p2917
I2
sS'scary'
p2918
I6
sS'backwards'
p2919
I1
sS'g'
p2920
I1
sS'could'
p2921
I21
sS'ask'
p2922
I2
sS'david'
p2923
I6
sS'sub-genre'
p2924
I1
sS'illicit'
p2925
I1
sS'length'
p2926
I1
sS'explored'
p2927
I2
sS'timed'
p2928
I2
sS'humphrey'
p2929
I6
sS'chills'
p2930
I2
sS'scare'
p2931
I1
sS'south'
p2932
I4
sS'finest'
p2933
I4
sS'succeeds'
p2934
I3
sS'fleshed'
p2935
I1
sS'powerful'
p2936
I2
sS'scene'
p2937
I32
sS'owned'
p2938
I1
sS'middleschool'
p2939
I1
sS'cold-blooded'
p2940
I1
sS'twas'
p2941
I1
sS'owner'
p2942
I4
sS'wimp'
p2943
I1
sS'quality'
p2944
I3
sS'heroes'
p2945
I4
sS"doesn't"
p2946
I4
sS'sadly'
p2947
I1
sS'reference'
p2948
I1
sS'ordering'
p2949
I1
sS'unknown'
p2950
I1
sS'relations'
p2951
I1
sS'their'
p2952
I32
sS'starry'
p2953
I1
sS'brainless'
p2954
I1
sS'lions'
p2955
I1
sS'perfectly'
p2956
I5
sS'final'
p2957
I1
sS'boil'
p2958
I1
sS'remarking'
p2959
I1
sS'lot'
p2960
I8
sS'academy'
p2961
I3
sS'explanation'
p2962
I1
sS'exactly'
p2963
I1
sS'motorcycle'
p2964
I1
sS'depressing'
p2965
I2
sS'accompaniment'
p2966
I1
sS'allied'
p2967
I1
sS'deniro'
p2968
I1
sS'july'
p2969
I1
sS'haven'
p2970
I1
sS'cym'
p2971
I1
sS'neck'
p2972
I1
sS'steel'
p2973
I1
sS'loved'
p2974
I25
sS'loy'
p2975
I2
sS'ben'
p2976
I1
sS'objectionable'
p2977
I1
sS'boring'
p2978
I2
sS'bother'
p2979
I1
sS'see'
p2980
I40
sS'screeching'
p2981
I1
sS'cartoonish'
p2982
I1
sS'individual'
p2983
I1
sS"body's"
p2984
I1
sS'loves'
p2985
I2
sS'lover'
p2986
I1
sS'providing'
p2987
I1
sS'sevaral'
p2988
I1
sS'occurences'
p2989
I1
sS'descriptions'
p2990
I1
sS'ingenious'
p2991
I1
sS'imaginative'
p2992
I1
sS'present--has'
p2993
I1
sS'viewer'
p2994
I5
sS'reminders'
p2995
I1
sS'buy'
p2996
I1
sS'have'
p2997
I79
sS'disturbing'
p2998
I1
sS'need'
p2999
I7
sS'sky'
p3000
I1
sS'apparently'
p3001
I2
sS'viewed'
p3002
I2
sS"let's"
p3003
I1
sS'studying'
p3004
I1
sS'reeks'
p3005
I2
sS'able'
p3006
I3
sS'populist'
p3007
I1
sS'instance'
p3008
I1
sS'relatives'
p3009
I1
sS'which'
p3010
I18
sS'halarios'
p3011
I1
sS'='
p3012
I1
sS'persistence'
p3013
I1
sS'cosby'
p3014
I1
sS'embroiled'
p3015
I1
sS'combat'
p3016
I1
sS'who'
p3017
I53
sS'johnathan'
p3018
I1
sS'intentions'
p3019
I1
sS'eight'
p3020
I1
sS'demise'
p3021
I2
sS'device'
p3022
I1
sS'highschool'
p3023
I1
sS'sophisticated'
p3024
I1
sS'why'
p3025
I7
sS'so-called'
p3026
I2
sS'deny'
p3027
I1
sS'refreshing'
p3028
I2
sS'saddest'
p3029
I1
sS'poorly-lit'
p3030
I1
sS'lincolnesque'
p3031
I1
sS'thanksgiving'
p3032
I1
sS"you'll"
p3033
I1
sS'talk'
p3034
I4
sS'pictures'
p3035
I2
sS'fact'
p3036
I10
sS'teeches'
p3037
I1
sS'myrna'
p3038
I2
sS'charles'
p3039
I1
sS'anyway'
p3040
I3
sS'bring'
p3041
I4
sS'planning'
p3042
I1
sS'seraph'
p3043
I1
sS'dorothy'
p3044
I6
sS'soldiers'
p3045
I2
sS'darkest'
p3046
I1
sS'decade'
p3047
I1
sS'loveable'
p3048
I1
sS'inspiring'
p3049
I2
sS'filmed'
p3050
I3
sS'based'
p3051
I7
sS'knowledge'
p3052
I1
sS'tire'
p3053
I1
sS'earned'
p3054
I1
sS'('
p3055
I78
sS"generation'"
p3056
I1
sS'furnished'
p3057
I1
sS'madman'
p3058
I1
sS'should'
p3059
I21
sS'bernard'
p3060
I5
sS'dreamers'
p3061
I1
sS'werw'
p3062
I1
sS'riding'
p3063
I1
sS'inferior'
p3064
I1
sS'discovers'
p3065
I1
sS'fabulous'
p3066
I3
sS'watching'
p3067
I11
sS'familiar'
p3068
I1
sS'tbs'
p3069
I1
sS'massacre'
p3070
I2
sS'overall'
p3071
I3
sS'bear'
p3072
I3
sS'ones'
p3073
I2
sS'perfection'
p3074
I2
sS'words'
p3075
I3
sS'gulch'
p3076
I1
sS"rainbow'"
p3077
I1
sS'well-entrenched'
p3078
I1
sS'areas'
p3079
I1
sS'gray'
p3080
I1
sS'brain'
p3081
I1
sS'married'
p3082
I1
sS'vied'
p3083
I1
sS'calling'
p3084
I2
sS'stuff'
p3085
I3
sS'she'
p3086
I21
sS'wish'
p3087
I3
sS'tunes'
p3088
I2
sS'including'
p3089
I2
sS'fixed'
p3090
I1
sS'marries'
p3091
I1
sS'generations'
p3092
I3
sS'view'
p3093
I3
sS'exists'
p3094
I1
sS'national'
p3095
I3
sS'orphan'
p3096
I1
sS'freeze'
p3097
I1
sS'mentioned'
p3098
I1
sS'accused'
p3099
I2
sS'packed'
p3100
I1
sS"lincoln's"
p3101
I1
sS'has'
p3102
I65
sS'arguably'
p3103
I1
sS'nightmare'
p3104
I2
sS'willpower'
p3105
I2
sS'tend'
p3106
I1
sS'genius'
p3107
I4
sS'state'
p3108
I1
sS'injustice'
p3109
I1
sS'horrible'
p3110
I1
sS'rendition'
p3111
I1
sS'flicks'
p3112
I1
sS'1890s'
p3113
I2
sS'bought'
p3114
I1
sS'preminger'
p3115
I1
sS'ends'
p3116
I2
sS'attention'
p3117
I1
sS'george'
p3118
I13
sS'janet'
p3119
I8
sS'opening'
p3120
I1
sS'joy'
p3121
I3
sS'gollywood'
p3122
I1
sS'job'
p3123
I8
sS'key'
p3124
I1
sS'group'
p3125
I3
sS'precious'
p3126
I1
sS'withstanding'
p3127
I1
sS'jon'
p3128
I1
sS'staring'
p3129
I2
sS'instant'
p3130
I1
sS'career'
p3131
I3
sS'joke'
p3132
I1
sS'taking'
p3133
I4
sS"he's"
p3134
I2
sS'equal'
p3135
I1
sS'minds'
p3136
I1
sS'pulp'
p3137
I2
sS'etc'
p3138
I3
sS'busted'
p3139
I1
sS'grain'
p3140
I1
sS'dangeroud'
p3141
I1
sS'grail'
p3142
I1
sS'tlk'
p3143
I1
sS'glorious'
p3144
I1
sS'inembriated'
p3145
I1
sS'comment'
p3146
I2
sS'fils'
p3147
I1
sS'wall'
p3148
I2
sS'cg'
p3149
I1
sS'melting'
p3150
I1
sS'competent'
p3151
I1
sS'laugh'
p3152
I2
sS'sequences'
p3153
I1
sS'uninitiated'
p3154
I2
sS'willy'
p3155
I1
sS"he'd"
p3156
I1
sS'addition'
p3157
I2
sS"it's"
p3158
I51
sS'hayakawa'
p3159
I2
sS'trademark'
p3160
I1
sS'reindeer'
p3161
I1
sS'slowly'
p3162
I1
sS'treat'
p3163
I1
sS'upbeat'
p3164
I1
sS'copied'
p3165
I2
sS'recurring'
p3166
I1
sS'adapting'
p3167
I1
sS'mike'
p3168
I1
sS'bit'
p3169
I6
sS'spock'
p3170
I1
sS'moved'
p3171
I2
sS'vince'
p3172
I1
sS'sensed'
p3173
I1
sS'watches'
p3174
I2
sS'graphics'
p3175
I1
sS'kicks'
p3176
I1
sS'prescription'
p3177
I1
sS'fellow'
p3178
I1
sS'despite'
p3179
I3
sS'present'
p3180
I2
sS'novel'
p3181
I5
sS'unlike'
p3182
I1
sS'fearful'
p3183
I1
sS'plain'
p3184
I1
sS'examine'
p3185
I1
sS'value'
p3186
I3
sS'secenes'
p3187
I1
sS'will'
p3188
I41
sS'stunning'
p3189
I2
sS'balance'
p3190
I1
sS'at'
p3191
I68
sS'annual'
p3192
I1
sS'almost'
p3193
I5
sS'fonda'
p3194
I4
sS'blood'
p3195
I2
sS'captors'
p3196
I1
sS'lust'
p3197
I2
sS'embezzling'
p3198
I1
sS'gothic'
p3199
I1
sS'swinging'
p3200
I1
sS'lightweight'
p3201
I1
sS'bucks'
p3202
I1
sS'greater'
p3203
I2
sS'slagging'
p3204
I1
sS'begining'
p3205
I1
sS'denial'
p3206
I1
sS')'
p3207
I90
sS'analysies'
p3208
I1
sS'views'
p3209
I1
sS'romance'
p3210
I3
sS'strange'
p3211
I1
sS'northwest'
p3212
I3
sS'gets'
p3213
I10
sS'powell'
p3214
I3
sS'flair'
p3215
I1
sS'difficult'
p3216
I1
sS"tale's"
p3217
I1
sS'slightly'
p3218
I2
sS'emotionally'
p3219
I2
sS'complemented'
p3220
I1
sS'drink'
p3221
I1
sS'upon'
p3222
I2
sS'effect'
p3223
I2
sS'heinred'
p3224
I1
sS'presentations'
p3225
I1
sS'discouraged'
p3226
I1
sS'dust'
p3227
I2
sS'frequently'
p3228
I1
sS'impeccable'
p3229
I1
sS'steals'
p3230
I3
sS'keep'
p3231
I6
sS"audience's"
p3232
I1
sS'off'
p3233
I16
sS'raping'
p3234
I1
sS'i'
p3235
I333
sS'modeled'
p3236
I1
sS'well'
p3237
I41
sS'fighting'
p3238
I3
sS'antonio'
p3239
I1
sS'thought'
p3240
I16
sS'clambering'
p3241
I1
sS'oops'
p3242
I1
sS'english'
p3243
I1
sS'alec'
p3244
I4
sS'drawing'
p3245
I1
sS'usual'
p3246
I2
sS'lightbulb'
p3247
I1
sS'stores'
p3248
I1
sS'cried'
p3249
I1
sS'less'
p3250
I5
sS'moments'
p3251
I5
sS'humdrum'
p3252
I1
sS'wealthy'
p3253
I2
sS'plumbs'
p3254
I1
sS'mistaken'
p3255
I2
sS'detail'
p3256
I1
sS'aspirations'
p3257
I1
sS'underlying'
p3258
I1
sS'seats'
p3259
I1
sS'paul'
p3260
I2
sS'claim'
p3261
I1
sS'cinematography'
p3262
I4
sS'drunk'
p3263
I2
sS'smith'
p3264
I1
sS'lake'
p3265
I1
sS'discuss'
p3266
I1
sS'reasons'
p3267
I5
sS'add'
p3268
I3
sS'other'
p3269
I23
sS'munchkins'
p3270
I1
sS'citizen'
p3271
I2
sS'matched'
p3272
I1
sS'smart'
p3273
I2
sS'uk'
p3274
I1
sS'definitive'
p3275
I2
sS'ample'
p3276
I1
sS"who's"
p3277
I1
sS'fairies'
p3278
I2
sS'falters'
p3279
I1
sS'solider'
p3280
I1
sS'five'
p3281
I1
sS'whatever'
p3282
I2
sS'unseen'
p3283
I1
sS'immediately'
p3284
I1
sS'loss'
p3285
I1
sS'x-mas'
p3286
I1
sS'necessary'
p3287
I2
sS'like'
p3288
I59
sS'success'
p3289
I3
sS'housekeeper'
p3290
I1
sS'candy'
p3291
I1
sS'martin'
p3292
I4
sS'become'
p3293
I5
sS'works'
p3294
I3
sS'accessible'
p3295
I1
sS'because'
p3296
I18
sS'seeks'
p3297
I1
sS'classical'
p3298
I1
sS'sequence'
p3299
I3
sS'scared'
p3300
I1
sS'alive'
p3301
I3
sS'immortal'
p3302
I1
sS'convey'
p3303
I1
sS'home'
p3304
I8
sS"school's"
p3305
I1
sS'peter'
p3306
I4
sS'stuffy'
p3307
I1
sS'happens'
p3308
I2
sS'trust'
p3309
I1
sS'henchman'
p3310
I1
sS'lead'
p3311
I2
sS'literally'
p3312
I1
sS'lean'
p3313
I4
sS'tad'
p3314
I1
sS'does'
p3315
I20
sS"mockingbird'"
p3316
I1
sS'allegory'
p3317
I1
sS'andtheir'
p3318
I1
sS'?'
p3319
I37
sS'regain'
p3320
I1
sS'ripped'
p3321
I1
sS'stellar'
p3322
I1
sS'poignant'
p3323
I2
sS'although'
p3324
I6
sS'choked'
p3325
I1
sS'entirely'
p3326
I1
sS'simpler'
p3327
I1
sS'about'
p3328
I57
sS'actual'
p3329
I1
sS'getting'
p3330
I1
sS"donald's"
p3331
I1
sS'strasser'
p3332
I1
sS'recognized'
p3333
I1
sS'nightclub'
p3334
I3
sS'carries'
p3335
I1
sS'seedy'
p3336
I1
sS'introduced'
p3337
I1
sS'fatally'
p3338
I1
sS'ambigious'
p3339
I1
sS'turtle'
p3340
I1
sS'equally'
p3341
I1
sS'rendered'
p3342
I1
sS'childrens'
p3343
I2
sS'previously'
p3344
I1
sS'monkees'
p3345
I1
sS'couldnt'
p3346
I1
sS'mgm'
p3347
I1
sS'sorceror'
p3348
I1
sS'guard'
p3349
I1
sS'doesnt'
p3350
I2
sS'female'
p3351
I2
sS'additions'
p3352
I1
sS'quickly'
p3353
I1
sS'mere'
p3354
I2
sS'brilliantly'
p3355
I5
sS'macroeconomics'
p3356
I1
sS'hitting'
p3357
I1
sS'van'
p3358
I2
sS'platoon'
p3359
I1
sS'rivals'
p3360
I1
sS'*'
p3361
I3
sS'spots'
p3362
I2
sS'peters'
p3363
I1
sS'inspires'
p3364
I1
sS'biggest'
p3365
I2
sS'damn'
p3366
I2
sS'eg'
p3367
I1
sS'shawshank'
p3368
I1
sS'resembled'
p3369
I1
sS'melded'
p3370
I1
sS'north'
p3371
I4
sS'interest'
p3372
I1
sS"i've"
p3373
I12
sS'enchantment'
p3374
I1
sS'constantly'
p3375
I1
sS'sequel'
p3376
I1
sS'but'
p3377
I83
sS'reminds'
p3378
I1
sS'editing'
p3379
I2
sS'eat'
p3380
I3
sS'he'
p3381
I46
sS'count'
p3382
I2
sS'made'
p3383
I39
sS'whether'
p3384
I3
sS"lee's"
p3385
I3
sS'j'
p3386
I2
sS'honesly'
p3387
I1
sS'moive'
p3388
I1
sS'stories'
p3389
I5
sS'monument'
p3390
I1
sS'piece'
p3391
I1
sS'minutes'
p3392
I2
sS"bride'"
p3393
I1
sS'stirring'
p3394
I1
sS'connnelly'
p3395
I1
sS'bearing'
p3396
I1
sS'kowtow'
p3397
I1
sS'rightly'
p3398
I1
sS'sheerer'
p3399
I1
sS'universal'
p3400
I2
sS'bashing'
p3401
I1
sS'slowing'
p3402
I1
sS'twist'
p3403
I1
sS'beats'
p3404
I1
sS'periods'
p3405
I1
sS'goodness'
p3406
I2
sS'ing'
p3407
I2
sS'girl'
p3408
I6
sS'deeper'
p3409
I1
sS'oaf'
p3410
I1
sS'compared'
p3411
I3
sS'incredible'
p3412
I5
sS'ususal'
p3413
I1
sS'45'
p3414
I1
sS'offensive'
p3415
I2
sS'directors'
p3416
I1
sS'40'
p3417
I1
sS'drugs'
p3418
I1
sS'book'
p3419
I17
sS'sick'
p3420
I1
sS'finch'
p3421
I6
sS'50-odd'
p3422
I1
sS'incredibly'
p3423
I1
sS'conclusion'
p3424
I1
sS'album'
p3425
I1
sS'conveys'
p3426
I1
sS'emerges'
p3427
I1
sS'ears'
p3428
I1
sS'class'
p3429
I5
sS'astounding'
p3430
I1
sS'ultimately'
p3431
I1
sS'stay'
p3432
I2
sS'risked'
p3433
I1
sS'chifferobe'
p3434
I1
sS'kinda'
p3435
I1
sS'friends'
p3436
I11
sS'yell'
p3437
I1
sS'vein'
p3438
I1
sS'prevalent'
p3439
I1
sS'starting'
p3440
I1
sS'strings'
p3441
I2
sS'timelessness'
p3442
I1
sS'portion'
p3443
I1
sS'craft'
p3444
I1
sS'volumes'
p3445
I1
sS"joan's"
p3446
I1
sS'determination'
p3447
I2
sS'chiming'
p3448
I1
sa(dp3449
S'copy'
p3450
I2
sS'dynamic'
p3451
I1
sS'foul'
p3452
I1
sS'yikes'
p3453
I2
sS'sleep'
p3454
I3
sS'martinis'
p3455
I1
sS'woody'
p3456
I1
sS'captain'
p3457
I1
sS'hate'
p3458
I12
sS'poorly'
p3459
I1
sS'stinks'
p3460
I3
sS'whose'
p3461
I5
sS'porno'
p3462
I1
sS'vile'
p3463
I1
sS'originality'
p3464
I1
sS'1939-'
p3465
I1
sS'under'
p3466
I4
sS'sorry'
p3467
I9
sS'worth'
p3468
I4
sS'sinking'
p3469
I1
sS'hacked'
p3470
I1
sS'cemetary'
p3471
I1
sS'void'
p3472
I2
sS'rise'
p3473
I1
sS'every'
p3474
I6
sS'sonja'
p3475
I1
sS'vastly'
p3476
I1
sS'hairless'
p3477
I1
sS'dreamworks'
p3478
I2
sS'four'
p3479
I1
sS'school'
p3480
I4
sS'wooden'
p3481
I1
sS'companies'
p3482
I2
sS'solid'
p3483
I1
sS'vomit-pan'
p3484
I1
sS'deplorable'
p3485
I1
sS'happier'
p3486
I1
sS'clothes'
p3487
I2
sS'bill'
p3488
I1
sS'banderas'
p3489
I2
sS'tired'
p3490
I2
sS'blasphemy'
p3491
I1
sS'direct'
p3492
I2
sS'surrounding'
p3493
I1
sS'second'
p3494
I3
sS'street'
p3495
I1
sS'air'
p3496
I1
sS'theory'
p3497
I1
sS'even'
p3498
I32
sS'scenery-chewing'
p3499
I1
sS'pace'
p3500
I1
sS'saved'
p3501
I2
sS'panama'
p3502
I1
sS'above'
p3503
I2
sS'beckinsale'
p3504
I1
sS'new'
p3505
I7
sS'uuuuuuugggghhhhhh'
p3506
I1
sS'goldfinger'
p3507
I1
sS'ever'
p3508
I42
sS'disney'
p3509
I15
sS'told'
p3510
I1
sS'specialist'
p3511
I1
sS'hero'
p3512
I5
sS'screams'
p3513
I1
sS"seuss'"
p3514
I1
sS'mel'
p3515
I1
sS'never'
p3516
I22
sS'here'
p3517
I9
sS'100'
p3518
I2
sS"'period'"
p3519
I1
sS'aaaahhhhh'
p3520
I1
sS'borrowers'
p3521
I1
sS'kids'
p3522
I14
sS'daughter'
p3523
I2
sS'changed'
p3524
I2
sS'resemblence'
p3525
I1
sS"i'd"
p3526
I4
sS'military'
p3527
I2
sS"i'm"
p3528
I9
sS'changes'
p3529
I1
sS'intrigue'
p3530
I1
sS'consumers'
p3531
I1
sS'fantastic'
p3532
I2
sS'julia'
p3533
I3
sS'highly'
p3534
I4
sS'psychological'
p3535
I1
sS'total'
p3536
I4
sS'univ'
p3537
I1
sS'unit'
p3538
I3
sS'plot'
p3539
I32
sS'would'
p3540
I32
sS'army'
p3541
I1
sS'indians'
p3542
I1
sS'negative'
p3543
I1
sS'movie-'
p3544
I1
sS'asses'
p3545
I1
sS'music'
p3546
I3
sS'therefore'
p3547
I1
sS'recommend'
p3548
I1
sS'lazenby'
p3549
I1
sS'leaky'
p3550
I1
sS'type'
p3551
I8
sS'until'
p3552
I5
sS'oscar'
p3553
I1
sS'phony'
p3554
I1
sS'hurt'
p3555
I1
sS'grief'
p3556
I1
sS'adult'
p3557
I4
sS'former'
p3558
I1
sS'excellent'
p3559
I4
sS'90'
p3560
I2
sS'loons'
p3561
I1
sS'hold'
p3562
I2
sS'must'
p3563
I8
sS'me'
p3564
I41
sS'1995'
p3565
I1
sS'wore'
p3566
I1
sS'rights'
p3567
I1
sS"'educational'"
p3568
I1
sS'work'
p3569
I10
sS'entertained'
p3570
I1
sS'movies'
p3571
I39
sS'era'
p3572
I3
sS'mechanic'
p3573
I1
sS'mr'
p3574
I2
sS'ludicrosity'
p3575
I1
sS'experts'
p3576
I1
sS'rework'
p3577
I1
sS'my'
p3578
I43
sS'example'
p3579
I1
sS'matilda'
p3580
I1
sS'give'
p3581
I18
sS'dahl'
p3582
I1
sS'laughs'
p3583
I1
sS'want'
p3584
I14
sS'david'
p3585
I1
sS'attract'
p3586
I1
sS'absolute'
p3587
I3
sS'hoe'
p3588
I2
sS'end'
p3589
I3
sS'farce'
p3590
I1
sS'turn'
p3591
I3
sS'sitting'
p3592
I3
sS'stroy'
p3593
I2
sS'feature'
p3594
I3
sS'machine'
p3595
I1
sS'how'
p3596
I17
sS'stupidity'
p3597
I1
sS'nuff'
p3598
I1
sS'machina'
p3599
I1
sS'answer'
p3600
I1
sS'disappoint'
p3601
I1
sS'-an'
p3602
I1
sS'beach'
p3603
I1
sS'massive'
p3604
I1
sS'badly'
p3605
I1
sS'minority'
p3606
I1
sS'beauty'
p3607
I1
sS'bangers'
p3608
I1
sS'mess'
p3609
I1
sS'after'
p3610
I13
sS'wrong'
p3611
I6
sS'mph'
p3612
I1
sS'types'
p3613
I1
sS'schlock'
p3614
I1
sS'bucks'
p3615
I2
sS'porpous'
p3616
I1
sS'attempt'
p3617
I4
sS'third'
p3618
I1
sS'austin'
p3619
I1
sS'summing'
p3620
I1
sS'childhood'
p3621
I1
sS'complexity'
p3622
I1
sS'mega-bomb'
p3623
I1
sS'suggest'
p3624
I1
sS'fan'
p3625
I5
sS'nonsensical'
p3626
I1
sS'order'
p3627
I2
sS'wind'
p3628
I3
sS'sarcastically'
p3629
I1
sS'funfest'
p3630
I1
sS'guilt-ridden'
p3631
I1
sS'sidekicks'
p3632
I1
sS'vito'
p3633
I1
sS'saving'
p3634
I2
sS'budding'
p3635
I1
sS'caring'
p3636
I1
sS'bombing'
p3637
I4
sS"stinkin'"
p3638
I1
sS'borneo'
p3639
I2
sS'personal'
p3640
I1
sS','
p3641
I486
sS'writing'
p3642
I3
sS'better'
p3643
I24
sS'awfulness'
p3644
I1
sS'production'
p3645
I2
sS'then'
p3646
I20
sS'them'
p3647
I9
sS'prefer'
p3648
I1
sS'break'
p3649
I6
sS'bang'
p3650
I1
sS'therapy'
p3651
I1
sS'effects'
p3652
I7
sS'they'
p3653
I62
sS'one'
p3654
I88
sS'rental'
p3655
I1
sS'alex'
p3656
I2
sS'debut'
p3657
I1
sS'l'
p3658
I9
sS'choir'
p3659
I1
sS'skills'
p3660
I2
sS'im2'
p3661
I1
sS'victory'
p3662
I2
sS'each'
p3663
I1
sS'went'
p3664
I4
sS'classifies'
p3665
I1
sS'side'
p3666
I2
sS'mean'
p3667
I3
sS'snakes'
p3668
I1
sS'series'
p3669
I8
sS'innocent'
p3670
I1
sS'mangled'
p3671
I1
sS'sled'
p3672
I1
sS'group'
p3673
I1
sS'tip'
p3674
I1
sS'used'
p3675
I2
sS"'humans'"
p3676
I1
sS'flock'
p3677
I1
sS'message'
p3678
I1
sS'misfortune'
p3679
I1
sS'god'
p3680
I3
sS'diesel'
p3681
I4
sS'two-hour'
p3682
I1
sS'cheesy'
p3683
I4
sS'laid'
p3684
I1
sS'rare'
p3685
I1
sS'got'
p3686
I13
sS'preceed'
p3687
I1
sS"you're"
p3688
I2
sS'paen'
p3689
I1
sS'chaarcters'
p3690
I1
sS'given'
p3691
I1
sS'free'
p3692
I2
sS'standard'
p3693
I1
sS'decent'
p3694
I3
sS'necessarily'
p3695
I1
sS'vets'
p3696
I1
sS'wanted'
p3697
I5
sS'alarmingly'
p3698
I1
sS'created'
p3699
I1
sS'starts'
p3700
I1
sS'correctness'
p3701
I1
sS'days'
p3702
I1
sS'lousy'
p3703
I4
sS'teeny-bopper'
p3704
I1
sS'heck'
p3705
I1
sS"today's"
p3706
I1
sS"affleck's"
p3707
I2
sS'loud'
p3708
I1
sS'flick'
p3709
I8
sS'already'
p3710
I1
sS'twenty-two'
p3711
I1
sS'grade'
p3712
I2
sS'rank'
p3713
I1
sS'hearing'
p3714
I1
sS'hook'
p3715
I1
sS'another'
p3716
I14
sS'force'
p3717
I1
sS'diaster'
p3718
I1
sS'carlyle'
p3719
I2
sS'basketball'
p3720
I3
sS'explosives'
p3721
I1
sS'top'
p3722
I5
sS"tom's"
p3723
I1
sS'girls'
p3724
I4
sS'needed'
p3725
I4
sS'disappointed'
p3726
I3
sS'too'
p3727
I22
sS'tom'
p3728
I2
sS'hollywood'
p3729
I9
sS'john'
p3730
I3
sS'carrey'
p3731
I1
sS'dogs'
p3732
I5
sS'listen'
p3733
I1
sS'murder'
p3734
I1
sS'took'
p3735
I3
sS'japanese'
p3736
I4
sS'predictable'
p3737
I5
sS'somewhat'
p3738
I2
sS'butchered'
p3739
I1
sS'wasted'
p3740
I10
sS'mercifully'
p3741
I1
sS'pakistani'
p3742
I1
sS'target'
p3743
I1
sS'frankly'
p3744
I1
sS'hike'
p3745
I1
sS'bloated'
p3746
I1
sS'tree'
p3747
I1
sS'scenes'
p3748
I17
sS'project'
p3749
I1
sS'matter'
p3750
I2
sS'-----todd'
p3751
I1
sS'silly'
p3752
I3
sS'williams'
p3753
I1
sS'historical'
p3754
I2
sS'leathal'
p3755
I1
sS'feeling'
p3756
I3
sS'powers'
p3757
I1
sS'brilliant'
p3758
I1
sS"caveziel's"
p3759
I1
sS'donkey'
p3760
I2
sS'ran'
p3761
I4
sS'modern'
p3762
I2
sS'mind'
p3763
I2
sS'mine'
p3764
I1
sS'talking'
p3765
I2
sS'rat'
p3766
I1
sS'corny'
p3767
I5
sS'seen'
p3768
I25
sS'seem'
p3769
I3
sS'picks'
p3770
I1
sS'tells'
p3771
I1
sS'spade'
p3772
I1
sS'dozen'
p3773
I1
sS'forced'
p3774
I1
sS'realm'
p3775
I1
sS'mostly'
p3776
I1
sS"guys'"
p3777
I1
sS'-'
p3778
I15
sS'1962'
p3779
I1
sS'from-says'
p3780
I1
sS'sound'
p3781
I1
sS'kimba'
p3782
I1
sS'amusing'
p3783
I2
sS'funning'
p3784
I1
sS'laughed'
p3785
I3
sS'grips'
p3786
I1
sS'blue'
p3787
I1
sS'shallow'
p3788
I2
sS'though'
p3789
I7
sS'bruce'
p3790
I1
sS'rappers'
p3791
I1
sS'plenty'
p3792
I1
sS'exercises'
p3793
I1
sS'hide'
p3794
I1
sS'phantasm'
p3795
I1
sS'thriller'
p3796
I2
sS'opted'
p3797
I1
sS'slides'
p3798
I1
sS'doo'
p3799
I1
sS'suited'
p3800
I1
sS'metal'
p3801
I1
sS'dog'
p3802
I2
sS'definitely'
p3803
I1
sS'grossly'
p3804
I1
sS'inaccuracies'
p3805
I1
sS'appaulling'
p3806
I1
sS'notion'
p3807
I1
sS'came'
p3808
I6
sS'saying'
p3809
I2
sS'bomb'
p3810
I1
sS'one-dimensional'
p3811
I1
sS'retire'
p3812
I1
sS'bimbo'
p3813
I1
sS'ending'
p3814
I5
sS'earth'
p3815
I4
sS'enjoyed'
p3816
I5
sS'parodies'
p3817
I1
sS'whatsover'
p3818
I1
sS'busy'
p3819
I1
sS'absurdities'
p3820
I1
sS'spite'
p3821
I2
sS'explain'
p3822
I1
sS'sugar'
p3823
I1
sS'glasnost'
p3824
I1
sS'theme'
p3825
I2
sS'rich'
p3826
I2
sS'folks'
p3827
I1
sS'monuments'
p3828
I1
sS'personality'
p3829
I1
sS'wearing'
p3830
I1
sS'do'
p3831
I24
sS'de'
p3832
I1
sS'watch'
p3833
I12
sS'12'
p3834
I4
sS'despite'
p3835
I3
sS'iceberg'
p3836
I1
sS'dr'
p3837
I3
sS'tribute'
p3838
I1
sS'bat'
p3839
I1
sS'idiotic'
p3840
I2
sS'bay'
p3841
I1
sS'grammer'
p3842
I1
sS'bad'
p3843
I51
sS"hitchcock's"
p3844
I1
sS'stunningly'
p3845
I1
sS'shots'
p3846
I3
sS'rival'
p3847
I1
sS'release'
p3848
I3
sS'wannabe'
p3849
I1
sS'automatic'
p3850
I1
sS'steam'
p3851
I1
sS'crapfest'
p3852
I1
sS'thanks'
p3853
I1
sS'blew'
p3854
I1
sS'decides'
p3855
I2
sS'disaster'
p3856
I1
sS'reference'
p3857
I1
sS"costner's"
p3858
I1
sS'observed'
p3859
I1
sS'cloning'
p3860
I2
sS'reviewer'
p3861
I1
sS'fail'
p3862
I1
sS'armageddon'
p3863
I1
sS'disel'
p3864
I2
sS'best'
p3865
I14
sS'subject'
p3866
I1
sS'said'
p3867
I8
sS'duff'
p3868
I1
sS'lots'
p3869
I1
sS'away'
p3870
I6
sS'score'
p3871
I1
sS'pets'
p3872
I1
sS'cubby'
p3873
I1
sS'360'
p3874
I2
sS'warrior'
p3875
I1
sS'we'
p3876
I5
sS'men'
p3877
I2
sS'wears'
p3878
I1
sS'dumber'
p3879
I1
sS'weak'
p3880
I4
sS'however'
p3881
I3
sS'boss'
p3882
I1
sS'aaliyah'
p3883
I1
sS'motta'
p3884
I1
sS'wear'
p3885
I1
sS'dismembered'
p3886
I1
sS'disservice'
p3887
I1
sS'carbon'
p3888
I1
sS'adapting'
p3889
I1
sS'goddess'
p3890
I1
sS'brat'
p3891
I1
sS'country'
p3892
I1
sS'ill'
p3893
I1
sS'adventures'
p3894
I1
sS'against'
p3895
I3
sS'dissapointed'
p3896
I1
sS'players'
p3897
I1
sS'games'
p3898
I1
sS'mildly'
p3899
I1
sS'receives'
p3900
I1
sS'brad'
p3901
I1
sS'distinction'
p3902
I1
sS'confronted'
p3903
I1
sS'rehash'
p3904
I1
sS'had'
p3905
I28
sS'irresponsible'
p3906
I1
sS'maudlin'
p3907
I2
sS'foray'
p3908
I1
sS'stares'
p3909
I1
sS'comical'
p3910
I1
sS'bathroom'
p3911
I1
sS"aren't"
p3912
I1
sS'three'
p3913
I5
sS'been'
p3914
I20
sS'quickly'
p3915
I3
sS'submarine'
p3916
I1
sS'beer'
p3917
I2
sS'much'
p3918
I25
sS'interest'
p3919
I1
sS'expected'
p3920
I2
sS'containers'
p3921
I1
sS'life'
p3922
I14
sS'families'
p3923
I2
sS'retrospect'
p3924
I1
sS'housewives'
p3925
I1
sS'baum'
p3926
I1
sS'fest'
p3927
I1
sS'substance'
p3928
I1
sS'child'
p3929
I7
sS'catch'
p3930
I1
sS'sad'
p3931
I1
sS'remmington'
p3932
I1
sS'unpopular'
p3933
I1
sS'exception'
p3934
I1
sS'save'
p3935
I7
sS'charecters'
p3936
I1
sS'tastes'
p3937
I1
sS'n'
p3938
I5
sS'lesser'
p3939
I1
sS'ugly'
p3940
I2
sS'near'
p3941
I1
sS'voice'
p3942
I4
sS'played'
p3943
I1
sS'is'
p3944
I195
sS'dumped'
p3945
I1
sS'it'
p3946
I222
sS'ii'
p3947
I3
sS'player'
p3948
I1
sS'cant'
p3949
I3
sS'im'
p3950
I3
sS'experience'
p3951
I4
sS'in'
p3952
I151
sS'if'
p3953
I42
sS'deliberations-'
p3954
I1
sS'perform'
p3955
I1
sS'things'
p3956
I9
sS'make'
p3957
I31
sS'jerry'
p3958
I1
sS'american-style'
p3959
I1
sS'patient'
p3960
I1
sS'several'
p3961
I2
sS'grows'
p3962
I1
sS'raid'
p3963
I1
sS'pick'
p3964
I1
sS'hang'
p3965
I1
sS'evil'
p3966
I3
sS'hand'
p3967
I1
sS'biik'
p3968
I1
sS'producers'
p3969
I2
sS'preachy'
p3970
I2
sS'characters'
p3971
I9
sS'kid'
p3972
I3
sS'kept'
p3973
I2
sS'drip'
p3974
I1
sS'ocean'
p3975
I1
sS'contact'
p3976
I1
sS'greatest'
p3977
I3
sS'the'
p3978
I635
sS'camps'
p3979
I1
sS'corporate'
p3980
I1
sS'musical'
p3981
I3
sS'tha'
p3982
I1
sS'left'
p3983
I6
sS'slutty'
p3984
I1
sS'birth'
p3985
I1
sS'just'
p3986
I64
sS'yea'
p3987
I1
sS'photo'
p3988
I1
sS'sleepy'
p3989
I1
sS'financially'
p3990
I1
sS'thumbs'
p3991
I1
sS'facts'
p3992
I2
sS'yep'
p3993
I1
sS'yes'
p3994
I4
sS'yet'
p3995
I4
sS'enlighten'
p3996
I1
sS'adding'
p3997
I2
sS'puppetry'
p3998
I1
sS'character'
p3999
I11
sS'belongs'
p4000
I2
sS'easy'
p4001
I1
sS'pitiful'
p4002
I1
sS'has'
p4003
I33
sS'hat'
p4004
I1
sS'humanity'
p4005
I1
sS'trashed'
p4006
I1
sS'gave'
p4007
I3
sS'actresses'
p4008
I1
sS'casting'
p4009
I2
sS'possible'
p4010
I4
sS'possibly'
p4011
I3
sS'cultural'
p4012
I1
sS'background'
p4013
I1
sS'wanting'
p4014
I2
sS'slurs'
p4015
I1
sS'tolerable'
p4016
I1
sS'apart'
p4017
I2
sS'desire'
p4018
I1
sS'brought'
p4019
I2
sS'gift'
p4020
I1
sS'hunt'
p4021
I4
sS'50'
p4022
I2
sS'specific'
p4023
I1
sS'steps'
p4024
I1
sS'overrated'
p4025
I7
sS'digimon'
p4026
I4
sS'night'
p4027
I3
sS'security'
p4028
I1
sS'flonts'
p4029
I1
sS'battlefield'
p4030
I1
sS'www'
p4031
I2
sS'right'
p4032
I9
sS'old'
p4033
I16
sS'deal'
p4034
I2
sS'people'
p4035
I27
sS"'rock"
p4036
I1
sS'somehow'
p4037
I2
sS'dead'
p4038
I3
sS'jennifer'
p4039
I2
sS'mis-cast'
p4040
I1
sS'escape'
p4041
I1
sS'dear'
p4042
I2
sS'bore'
p4043
I3
sS'orchid'
p4044
I1
sS'cocaine'
p4045
I1
sS'humor'
p4046
I5
sS'theatre'
p4047
I1
sS'non-commissioned'
p4048
I1
sS'bottom'
p4049
I1
sS'/'
p4050
I8
sS'everything'
p4051
I5
sS'asking'
p4052
I1
sS'christmas'
p4053
I3
sS'officer'
p4054
I1
sS'impressionable'
p4055
I1
sS"ol'"
p4056
I1
sS'burn'
p4057
I1
sS'thge'
p4058
I1
sS'promos'
p4059
I1
sS'newcomer'
p4060
I1
sS'starring'
p4061
I1
sS'poppies'
p4062
I2
sS'dissapointment'
p4063
I2
sS'flaws'
p4064
I1
sS'post'
p4065
I2
sS'cowboy'
p4066
I1
sS'dollars'
p4067
I1
sS'o'
p4068
I2
sS'cliche'
p4069
I2
sS'plus'
p4070
I1
sS'commit'
p4071
I1
sS'efforts'
p4072
I2
sS'slightly'
p4073
I2
sS'facility'
p4074
I1
sS'tinkerbell'
p4075
I1
sS'attorney'
p4076
I1
sS'intellectual'
p4077
I1
sS'son'
p4078
I1
sS'down'
p4079
I15
sS'overkill'
p4080
I1
sS'insult'
p4081
I5
sS'averege'
p4082
I1
sS'crowd'
p4083
I2
sS'devil-whore'
p4084
I1
sS'amazingly'
p4085
I1
sS'halle'
p4086
I1
sS'fight'
p4087
I4
sS'stuck'
p4088
I1
sS'clinical'
p4089
I1
sS'let-down'
p4090
I1
sS'gia'
p4091
I1
sS'jane'
p4092
I2
sS'was'
p4093
I167
sS'war'
p4094
I12
sS'personatly'
p4095
I1
sS'questionable'
p4096
I1
sS'head'
p4097
I2
sS'abysmal'
p4098
I1
sS'offer'
p4099
I1
sS'sighn'
p4100
I1
sS'ford'
p4101
I1
sS'failure'
p4102
I1
sS'talents'
p4103
I1
sS'hear'
p4104
I1
sS'prettily'
p4105
I2
sS'removed'
p4106
I1
sS'true'
p4107
I2
sS'underfunded'
p4108
I1
sS're-telling'
p4109
I1
sS'tell'
p4110
I7
sS'epps'
p4111
I1
sS'camaro'
p4112
I1
sS'lays'
p4113
I1
sS'scream'
p4114
I2
sS'more'
p4115
I11
sS'propaganda'
p4116
I2
sS'disgrace'
p4117
I1
sS'moore'
p4118
I1
sS'classic'
p4119
I7
sS'nudity'
p4120
I3
sS'novel'
p4121
I2
sS'drive'
p4122
I1
sS'howling'
p4123
I1
sS'proves'
p4124
I1
sS'exist'
p4125
I1
sS'bogart'
p4126
I1
sS'die-'
p4127
I1
sS'yuck'
p4128
I1
sS'ship'
p4129
I1
sS'annoying'
p4130
I12
sS'protrubing'
p4131
I1
sS'slurring'
p4132
I1
sS'no'
p4133
I46
sS'commercials'
p4134
I1
sS"song'"
p4135
I1
sS'when'
p4136
I44
sS'actor'
p4137
I4
sS'reality'
p4138
I1
sS'cliffhanger'
p4139
I1
sS'setting'
p4140
I3
sS'role'
p4141
I1
sS'whew'
p4142
I1
sS'brings'
p4143
I1
sS'confusing'
p4144
I5
sS'picture'
p4145
I3
sS'dies'
p4146
I1
sS'felt'
p4147
I4
sS'convincing'
p4148
I2
sS'pg-13'
p4149
I1
sS"let's"
p4150
I1
sS'fell'
p4151
I2
sS'miranda'
p4152
I1
sS'rolling'
p4153
I1
sS'troupe'
p4154
I1
sS'anti-white'
p4155
I1
sS'died'
p4156
I2
sS'jones'
p4157
I1
sS'shootout'
p4158
I1
sS'longer'
p4159
I2
sS'moved'
p4160
I1
sS'together'
p4161
I5
sS'loyal'
p4162
I1
sS'vietnam'
p4163
I1
sS'time'
p4164
I31
sS'paced'
p4165
I1
sS'songs'
p4166
I3
sS'concept'
p4167
I2
sS'managed'
p4168
I2
sS'dance'
p4169
I1
sS'skip'
p4170
I4
sS'rob'
p4171
I1
sS'hurl'
p4172
I1
sS'leads'
p4173
I3
sS'crocodile'
p4174
I1
sS'theaters'
p4175
I2
sS'mile'
p4176
I2
sS'ice'
p4177
I1
sS'battle'
p4178
I3
sS'sould'
p4179
I1
sS'hole'
p4180
I1
sS'supposedly'
p4181
I2
sS'uneven'
p4182
I1
sS'yummy'
p4183
I1
sS'foe'
p4184
I1
sS'1942'
p4185
I1
sS'1941'
p4186
I3
sS'disgusting'
p4187
I1
sS'contemplating'
p4188
I1
sS'0'
p4189
I1
sS'finally'
p4190
I2
sS'circumstances'
p4191
I1
sS'veterans'
p4192
I1
sS'shoot'
p4193
I2
sS'over-the-top'
p4194
I1
sS'jerk'
p4195
I1
sS'billionaire'
p4196
I1
sS'sloppy'
p4197
I2
sS'sappy'
p4198
I1
sS'word'
p4199
I2
sS'trouble'
p4200
I1
sS'blast'
p4201
I1
sS'exact'
p4202
I1
sS'moola'
p4203
I1
sS'dil'
p4204
I1
sS'looney'
p4205
I1
sS"'speed"
p4206
I1
sS'purely'
p4207
I1
sS'did'
p4208
I11
sS'die'
p4209
I3
sS'brother'
p4210
I1
sS'standards'
p4211
I2
sS'leave'
p4212
I2
sS'team'
p4213
I4
sS'quick'
p4214
I2
sS'guy'
p4215
I11
sS'round'
p4216
I1
sS'says'
p4217
I2
sS'regret'
p4218
I1
sS'porn'
p4219
I1
sS'trend'
p4220
I2
sS'd'
p4221
I1
sS'soldiers'
p4222
I1
sS'run'
p4223
I2
sS'fear'
p4224
I1
sS'adds'
p4225
I2
sS"o'donnell"
p4226
I1
sS'ww2'
p4227
I2
sS'favour'
p4228
I1
sS'uniform'
p4229
I1
sS'reminiscent'
p4230
I1
sS'goes'
p4231
I3
sS'hand-to-hand'
p4232
I1
sS'falling'
p4233
I1
sS'crashing'
p4234
I1
sS'filled'
p4235
I2
sS'burnett'
p4236
I1
sS'french'
p4237
I2
sS'alone'
p4238
I2
sS'along'
p4239
I2
sS'nadir'
p4240
I1
sS'box'
p4241
I2
sS'boy'
p4242
I3
sS'hbo'
p4243
I1
sS'male'
p4244
I1
sS'precursor'
p4245
I1
sS'root'
p4246
I1
sS'bow'
p4247
I1
sS'exploitation'
p4248
I2
sS'thrashed'
p4249
I1
sS'usually'
p4250
I6
sS'myers'
p4251
I1
sS'hartnett'
p4252
I2
sS'love'
p4253
I14
sS'extra'
p4254
I1
sS'habor'
p4255
I1
sS'sign'
p4256
I1
sS'morale'
p4257
I1
sS'fake'
p4258
I3
sS'atrocious'
p4259
I1
sS'nauseating'
p4260
I1
sS'working'
p4261
I1
sS'prove'
p4262
I1
sS'angry'
p4263
I1
sS'dude'
p4264
I2
sS'tears'
p4265
I1
sS'live'
p4266
I1
sS'wood'
p4267
I1
sS'wonderfully'
p4268
I1
sS'wondering'
p4269
I3
sS'films'
p4270
I13
sS'angels'
p4271
I1
sS'today'
p4272
I1
sS'loving'
p4273
I1
sS'afore'
p4274
I1
sS'drown'
p4275
I1
sS'everywhere'
p4276
I2
sS'plantations'
p4277
I1
sS'cases'
p4278
I1
sS'effort'
p4279
I2
sS'judi'
p4280
I1
sS'sheds'
p4281
I1
sS'deformed'
p4282
I1
sS'car'
p4283
I3
sS'soul'
p4284
I2
sS'believer'
p4285
I1
sS'cat'
p4286
I6
sS'drags'
p4287
I1
sS'can'
p4288
I30
sS'romanticized'
p4289
I2
sS'believed'
p4290
I2
sS'making'
p4291
I9
sS'laughter'
p4292
I1
sS'mindlessly'
p4293
I1
sS'imitation'
p4294
I1
sS'heart'
p4295
I1
sS'performer'
p4296
I2
sS'stream'
p4297
I1
sS'frogs'
p4298
I1
sS'awesome'
p4299
I2
sS"didn't"
p4300
I21
sS'nascar'
p4301
I3
sS'heard'
p4302
I4
sS'stroke'
p4303
I1
sS'allowed'
p4304
I1
sS'confuses'
p4305
I1
sS'provoke'
p4306
I1
sS'bankrupt'
p4307
I1
sS'lifeless'
p4308
I1
sS'robinson'
p4309
I1
sS'delirious'
p4310
I1
sS'dinner'
p4311
I1
sS'1'
p4312
I8
sS'till'
p4313
I1
sS'fourth'
p4314
I1
sS"'sugarcoated'"
p4315
I1
sS'speaks'
p4316
I1
sS'nonstop'
p4317
I1
sS'economy'
p4318
I1
sS'unbelievable'
p4319
I2
sS'may'
p4320
I5
sS'produce'
p4321
I1
sS'designed'
p4322
I1
sS'date'
p4323
I1
sS'such'
p4324
I16
sS'suck'
p4325
I1
sS'destructive'
p4326
I1
sS'guys'
p4327
I4
sS'lacked'
p4328
I2
sS'antithesis'
p4329
I1
sS'man'
p4330
I6
sS'fantasia'
p4331
I1
sS'remember'
p4332
I6
sS'whenever'
p4333
I1
sS'maybe'
p4334
I7
sS'tale'
p4335
I1
sS'reaper'
p4336
I1
sS'so'
p4337
I60
sS'representation'
p4338
I1
sS'anaconda'
p4339
I1
sS'talk'
p4340
I3
sS'typical'
p4341
I1
sS'miracles'
p4342
I1
sS'johny'
p4343
I1
sS'mainly'
p4344
I1
sS'years'
p4345
I8
sS'course'
p4346
I3
sS'shake'
p4347
I1
sS'cold'
p4348
I2
sS'still'
p4349
I6
sS'tora'
p4350
I3
sS'thank'
p4351
I1
sS"he's"
p4352
I1
sS'brained'
p4353
I1
sS'interesting'
p4354
I2
sS"woo's"
p4355
I1
sS'jim'
p4356
I1
sS'amazing'
p4357
I3
sS"he'd"
p4358
I1
sS'civil'
p4359
I1
sS'writers'
p4360
I1
sS'main'
p4361
I1
sS'into'
p4362
I14
sS'happened'
p4363
I2
sS'non'
p4364
I1
sS'smarter'
p4365
I1
sS'insomnia'
p4366
I1
sS'nation'
p4367
I1
sS'touching'
p4368
I1
sS'half'
p4369
I7
sS'not'
p4370
I80
sS'now'
p4371
I11
sS'killed'
p4372
I1
sS'josh'
p4373
I2
sS'zigging'
p4374
I1
sS'candlesticks'
p4375
I1
sS"freakin'"
p4376
I1
sS'name'
p4377
I6
sS'riceburner'
p4378
I1
sS'truckload'
p4379
I1
sS'james'
p4380
I8
sS'exageration'
p4381
I1
sS'4kids'
p4382
I1
sS'rock'
p4383
I3
sS'imtatiaon'
p4384
I1
sS'childish'
p4385
I1
sS'booorrrrinnnnnggggg'
p4386
I1
sS'kane'
p4387
I2
sS'directing'
p4388
I1
sS'yeah'
p4389
I2
sS'ex'
p4390
I1
sS'year'
p4391
I4
sS'dench'
p4392
I1
sS'happen'
p4393
I4
sS'avoided'
p4394
I1
sS'disasters'
p4395
I1
sS'turkeys'
p4396
I1
sS'tried'
p4397
I7
sS'shown'
p4398
I1
sS"america's"
p4399
I1
sS'jackson'
p4400
I3
sS'space'
p4401
I1
sS'truly'
p4402
I1
sS'claptrap'
p4403
I2
sS'looking'
p4404
I1
sS'attracted'
p4405
I1
sS'seriously'
p4406
I1
sS"shouldn't"
p4407
I1
sS'stallone'
p4408
I3
sS'philandering'
p4409
I1
sS'cuts'
p4410
I1
sS'correct'
p4411
I2
sS'shows'
p4412
I1
sS'inevitably'
p4413
I1
sS'performing'
p4414
I1
sS'monster'
p4415
I1
sS'olsens'
p4416
I1
sS'cars'
p4417
I12
sS'million'
p4418
I1
sS'quite'
p4419
I5
sS'grimacing'
p4420
I1
sS'complicated'
p4421
I1
sS'care'
p4422
I6
sS'reflect'
p4423
I1
sS'training'
p4424
I1
sS'flare'
p4425
I1
sS'british'
p4426
I1
sS'thing'
p4427
I12
sS'doolittle'
p4428
I1
sS'place'
p4429
I3
sS'aboard'
p4430
I1
sS'preach'
p4431
I1
sS'think'
p4432
I12
sS'first'
p4433
I23
sS'emotion'
p4434
I1
sS'feign'
p4435
I1
sS'suspend'
p4436
I1
sS'fetched'
p4437
I1
sS'spoken'
p4438
I1
sS'budweiser'
p4439
I1
sS'potter'
p4440
I1
sS'yourself'
p4441
I5
sS"m's"
p4442
I2
sS'aagghhwwww'
p4443
I1
sS'americans'
p4444
I2
sS'long'
p4445
I12
sS'costner'
p4446
I1
sS'impossible'
p4447
I3
sS'sounds'
p4448
I1
sS'pokemon'
p4449
I6
sS'tomorrow'
p4450
I2
sS"'em"
p4451
I1
sS'little'
p4452
I15
sS'disappointment'
p4453
I3
sS'personalities'
p4454
I2
sS'tranparent'
p4455
I1
sS'remotely'
p4456
I2
sS'anyone'
p4457
I10
sS'2'
p4458
I10
sS'alfred'
p4459
I1
sS'white'
p4460
I5
sS'friend'
p4461
I3
sS"we're"
p4462
I1
sS'eyes'
p4463
I2
sS'way'
p4464
I31
sS'releases'
p4465
I1
sS'that'
p4466
I140
sS'humans'
p4467
I1
sS'released'
p4468
I1
sS'ridiculous'
p4469
I4
sS'seat'
p4470
I1
sS'than'
p4471
I12
sS'infiltrate'
p4472
I1
sS'boyfriend'
p4473
I2
sS'11'
p4474
I2
sS'10'
p4475
I6
sS':'
p4476
I23
sS'15'
p4477
I1
sS'unfortunately'
p4478
I1
sS'seuss'
p4479
I2
sS'19'
p4480
I1
sS'notches'
p4481
I1
sS'require'
p4482
I1
sS'non-stop'
p4483
I1
sS'showcase'
p4484
I1
sS'pablum'
p4485
I1
sS'war-mongering'
p4486
I1
sS'were'
p4487
I29
sS'college'
p4488
I1
sS'happy'
p4489
I1
sS'russia'
p4490
I1
sS'disasterous'
p4491
I1
sS'and'
p4492
I316
sS'selznick'
p4493
I1
sS'nicer'
p4494
I1
sS'turned'
p4495
I2
sS'voices'
p4496
I3
sS'13th'
p4497
I1
sS'say'
p4498
I18
sS'conspiracy'
p4499
I1
sS'suspense'
p4500
I1
sS'rent'
p4501
I5
sS'distorted'
p4502
I1
sS'allen'
p4503
I1
sS'saw'
p4504
I11
sS'any'
p4505
I24
sS'kevin'
p4506
I1
sS'superman'
p4507
I1
sS'publicity'
p4508
I1
sS'form'
p4509
I1
sS'unsuitable'
p4510
I1
sS'mind-numbingly'
p4511
I1
sS'sending'
p4512
I1
sS'ideas'
p4513
I1
sS'note'
p4514
I2
sS'equipment'
p4515
I2
sS'potential'
p4516
I2
sS'take'
p4517
I6
sS'diesal'
p4518
I1
sS'performance'
p4519
I4
sS'deus'
p4520
I1
sS'channel'
p4521
I1
sS'afghanis'
p4522
I1
sS'begin'
p4523
I6
sS'sure'
p4524
I3
sS'pain'
p4525
I1
sS'oppressive'
p4526
I1
sS'trach'
p4527
I1
sS'paid'
p4528
I1
sS'egyptian'
p4529
I1
sS'america'
p4530
I4
sS']'
p4531
I1
sS'pages'
p4532
I1
sS'peice'
p4533
I1
sS'especially'
p4534
I1
sS'surprising'
p4535
I1
sS'room'
p4536
I1
sS'considered'
p4537
I1
sS'graphics'
p4538
I1
sS'later'
p4539
I1
sS'hungry'
p4540
I1
sS"charlie's"
p4541
I1
sS'sunset'
p4542
I1
sS'backdrop'
p4543
I1
sS'slaves'
p4544
I2
sS'presense'
p4545
I1
sS'professional'
p4546
I1
sS'senior'
p4547
I1
sS'basically'
p4548
I1
sS'detective'
p4549
I1
sS'rating'
p4550
I6
sS'show'
p4551
I11
sS'german'
p4552
I1
sS'usualy'
p4553
I1
sS'propagandist'
p4554
I1
sS'tend'
p4555
I1
sS'fifth'
p4556
I1
sS'casablanca'
p4557
I2
sS'weapons'
p4558
I1
sS'slow'
p4559
I3
sS'zahn'
p4560
I1
sS'title'
p4561
I3
sS'boooooring'
p4562
I1
sS'enough'
p4563
I6
sS'arquette'
p4564
I1
sS'only'
p4565
I30
sS'going'
p4566
I8
sS'black'
p4567
I2
sS'madeline'
p4568
I2
sS'travesty'
p4569
I2
sS'over'
p4570
I7
sS'get'
p4571
I18
sS'samuel'
p4572
I4
sS'mission'
p4573
I2
sS'simplistic'
p4574
I2
sS'cannot'
p4575
I2
sS'nearly'
p4576
I3
sS'gee'
p4577
I1
sS'brosnan'
p4578
I3
sS'freaking'
p4579
I1
sS'reading'
p4580
I2
sS'settings'
p4581
I1
sS'summary'
p4582
I1
sS'naked'
p4583
I1
sS'jokes'
p4584
I5
sS'stupid'
p4585
I23
sS'roger'
p4586
I2
sS"could've"
p4587
I2
sS'bombs'
p4588
I3
sS'bought'
p4589
I1
sS'where'
p4590
I9
sS'up'
p4591
I30
sS'relative'
p4592
I1
sS'asleep'
p4593
I5
sS'sean'
p4594
I2
sS'existence'
p4595
I1
sS'pebble'
p4596
I1
sS'ruined'
p4597
I5
sS'strangle'
p4598
I1
sS'professed'
p4599
I1
sS'wonder'
p4600
I2
sS'sideburns'
p4601
I1
sS'review'
p4602
I1
sS'opening'
p4603
I1
sS'teeny'
p4604
I1
sS'3'
p4605
I3
sS'between'
p4606
I5
sS'import'
p4607
I1
sS'teens'
p4608
I2
sS'before'
p4609
I5
sS'across'
p4610
I2
sS'prettiest'
p4611
I1
sS'screen'
p4612
I9
sS'style'
p4613
I2
sS'killing'
p4614
I1
sS'blame'
p4615
I1
sS'comm'
p4616
I1
sS'whisperer'
p4617
I1
sS'moviemaking'
p4618
I1
sS'nationality'
p4619
I1
sS'tub'
p4620
I1
sS'comb'
p4621
I1
sS'come'
p4622
I11
sS'talented'
p4623
I1
sS'many'
p4624
I6
sS'glycerine'
p4625
I1
sS'according'
p4626
I1
sS'contract'
p4627
I1
sS's'
p4628
I5
sS'dated'
p4629
I2
sS'remake'
p4630
I2
sS'tabloids'
p4631
I1
sS'spare'
p4632
I2
sS'comes'
p4633
I5
sS'guniea'
p4634
I1
sS'madness'
p4635
I1
sS'period'
p4636
I1
sS'pop'
p4637
I1
sS'poo'
p4638
I1
sS'pseudo-classic'
p4639
I1
sS"couldn't"
p4640
I11
sS'likability'
p4641
I1
sS'consider'
p4642
I1
sS'brats'
p4643
I2
sS'turkey'
p4644
I6
sS'sensible'
p4645
I1
sS'arts'
p4646
I1
sS'companionship'
p4647
I1
sS"'chick'"
p4648
I1
sS'jon'
p4649
I1
sS'roald'
p4650
I3
sS'helicopter'
p4651
I1
sS'staring'
p4652
I1
sS'hardly'
p4653
I1
sS'mary'
p4654
I1
sS'500'
p4655
I1
sS'wants'
p4656
I3
sS'direction'
p4657
I2
sS'educated'
p4658
I1
sS'tasteless'
p4659
I1
sS'influence'
p4660
I1
sS'thousand'
p4661
I1
sS'wake'
p4662
I2
sS'obscuring'
p4663
I1
sS'spirit'
p4664
I2
sS'those'
p4665
I12
sS'countless'
p4666
I2
sS'case'
p4667
I4
sS'myself'
p4668
I2
sS'these'
p4669
I13
sS'cheapquel'
p4670
I1
sS'cash'
p4671
I1
sS'arnold'
p4672
I5
sS'hayes'
p4673
I1
sS'trick'
p4674
I1
sS'cast'
p4675
I1
sS'cure'
p4676
I1
sS'ratchet'
p4677
I1
sS'endured'
p4678
I1
sS'hardlly'
p4679
I1
sS'dubious'
p4680
I1
sS'sleeping'
p4681
I1
sS'someone'
p4682
I4
sS'obnoxious'
p4683
I1
sS'technology'
p4684
I1
sS'different'
p4685
I1
sS'dragging'
p4686
I1
sS'develop'
p4687
I1
sS'author'
p4688
I1
sS'pay'
p4689
I2
sS'arrrgh'
p4690
I1
sS'same'
p4691
I10
sS'japensese'
p4692
I1
sS'poetic'
p4693
I1
sS'pan'
p4694
I2
sS'berry'
p4695
I1
sS'week'
p4696
I1
sS'disastorous'
p4697
I1
sS'oil'
p4698
I3
sS'mockery'
p4699
I2
sS'enjoyment'
p4700
I1
sS'drives'
p4701
I1
sS'director'
p4702
I4
sS'running'
p4703
I5
sS'climbing'
p4704
I2
sS'validate'
p4705
I1
sS'totally'
p4706
I4
sS'cartoon'
p4707
I4
sS'drain'
p4708
I1
sS'theater'
p4709
I3
sS'daytona'
p4710
I1
sS'charger'
p4711
I1
sS'floor'
p4712
I1
sS'roughly'
p4713
I1
sS'spoonful'
p4714
I1
sS'melodramatic'
p4715
I2
sS'costs'
p4716
I3
sS"can't"
p4717
I17
sS'bottle'
p4718
I1
sS'amazed'
p4719
I1
sS'justify'
p4720
I1
sS'summer'
p4721
I2
sS'frankie'
p4722
I1
sS'being'
p4723
I11
sS'money'
p4724
I11
sS'washed-up'
p4725
I1
sS'actress'
p4726
I2
sS'drivel'
p4727
I2
sS'violent'
p4728
I1
sS'wrecks'
p4729
I1
sS'kill'
p4730
I2
sS'harrison'
p4731
I1
sS'touch'
p4732
I1
sS'baldwin'
p4733
I1
sS'halfway'
p4734
I1
sS'blow'
p4735
I1
sS'half-witted'
p4736
I1
sS'death'
p4737
I2
sS'hint'
p4738
I1
sS'thinking'
p4739
I5
sS'seems'
p4740
I8
sS'except'
p4741
I3
sS"movie's"
p4742
I1
sS'interested'
p4743
I2
sS'ahhhh'
p4744
I1
sS'treatment'
p4745
I1
sS'grating'
p4746
I1
sS'wiseman'
p4747
I1
sS'real'
p4748
I9
sS'jake'
p4749
I1
sS'around'
p4750
I9
sS'spectacular'
p4751
I2
sS'easily'
p4752
I1
sS'read'
p4753
I5
sS'gonna'
p4754
I1
sS'dark'
p4755
I1
sS'understandable--just'
p4756
I1
sS'traffic'
p4757
I1
sS'ants'
p4758
I1
sS'world'
p4759
I8
sS'lady'
p4760
I1
sS'grim'
p4761
I1
sS'meaning'
p4762
I1
sS'denise'
p4763
I1
sS'snore'
p4764
I1
sS'overhyped'
p4765
I1
sS'audience'
p4766
I1
sS'either'
p4767
I2
sS'-dastardly'
p4768
I1
sS'accidentally'
p4769
I1
sS'sleepless'
p4770
I1
sS'rammstein'
p4771
I1
sS'eddie'
p4772
I1
sS"dahl's"
p4773
I2
sS'racial'
p4774
I1
sS'thinks'
p4775
I1
sS'babysitted'
p4776
I1
sS'tote'
p4777
I1
sS'memories'
p4778
I1
sS'deserve'
p4779
I1
sS'stopped'
p4780
I2
sS'inhabited'
p4781
I1
sS'doggy'
p4782
I1
sS'holywood'
p4783
I1
sS'considering'
p4784
I1
sS'backbone'
p4785
I1
sS'racism'
p4786
I3
sS'business'
p4787
I2
sS'sixth'
p4788
I1
sS'olives'
p4789
I1
sS'despicably'
p4790
I1
sS'smashmouth'
p4791
I1
sS'exciting'
p4792
I3
sS'stereotypes'
p4793
I1
sS'throw'
p4794
I2
sS'on'
p4795
I51
sS'ok'
p4796
I6
sS'opium'
p4797
I1
sS'ace'
p4798
I1
sS'oh'
p4799
I3
sS'metaphore'
p4800
I1
sS'of'
p4801
I283
sS'violence'
p4802
I4
sS'favorite'
p4803
I2
sS'whatdehay'
p4804
I1
sS'lamely'
p4805
I1
sS'wolf'
p4806
I1
sS'act'
p4807
I4
sS'badbadbadbadbad'
p4808
I1
sS'bond'
p4809
I13
sS'or'
p4810
I35
sS'ladies'
p4811
I1
sS'smiled'
p4812
I1
sS'snooze'
p4813
I1
sS'references'
p4814
I1
sS'gary'
p4815
I1
sS'portrayal'
p4816
I2
sS'leblanc'
p4817
I1
sS'nowadays'
p4818
I1
sS'your'
p4819
I18
sS'mental'
p4820
I1
sS'stare'
p4821
I1
sS"how's"
p4822
I1
sS'her'
p4823
I10
sS'hes'
p4824
I1
sS'there'
p4825
I28
sS'hey'
p4826
I3
sS'start'
p4827
I3
sS'cats'
p4828
I7
sS'racist'
p4829
I5
sS'low'
p4830
I3
sS'stars'
p4831
I6
sS'nose'
p4832
I1
sS'complete'
p4833
I2
sS'weasel'
p4834
I1
sS'chomping'
p4835
I1
sS'jus'
p4836
I1
sS'wiping'
p4837
I1
sS'survived'
p4838
I1
sS'implies'
p4839
I1
sS'trying'
p4840
I4
sS'with'
p4841
I84
sS'faster'
p4842
I2
sS"they're"
p4843
I1
sS'hire'
p4844
I1
sS'romantic'
p4845
I3
sS"wasn't"
p4846
I4
sS'reinlist'
p4847
I1
sS'tripe'
p4848
I2
sS'bucket'
p4849
I1
sS'tiny'
p4850
I1
sS'taught'
p4851
I1
sS'margaret'
p4852
I1
sS'politically'
p4853
I1
sS'gone'
p4854
I7
sS'leaked'
p4855
I1
sS'cinema'
p4856
I1
sS'taste'
p4857
I1
sS'certain'
p4858
I1
sS'describe'
p4859
I3
sS'am'
p4860
I13
sS'deep'
p4861
I3
sS'watcher'
p4862
I1
sS'as'
p4863
I66
sS'at'
p4864
I54
sS'ay'
p4865
I1
sS'watched'
p4866
I3
sS'heath'
p4867
I1
sS'russel'
p4868
I1
sS'film'
p4869
I77
sS'fill'
p4870
I1
sS'tedious'
p4871
I1
sS'again'
p4872
I10
sS'credibility'
p4873
I1
sS'bambi'
p4874
I1
sS'rubber'
p4875
I1
sS'effin'
p4876
I1
sS'5'
p4877
I6
sS'friggin'
p4878
I1
sS'you'
p4879
I69
sS'trash'
p4880
I10
sS'disgraceful'
p4881
I1
sS'poor'
p4882
I6
sS'passerby'
p4883
I1
sS'poop'
p4884
I3
sS'releasing'
p4885
I1
sS'bullets'
p4886
I1
sS'kingsley'
p4887
I1
sS'chris'
p4888
I1
sS'restraunt'
p4889
I1
sS'wife'
p4890
I1
sS'invest'
p4891
I1
sS'keanu'
p4892
I1
sS'mask'
p4893
I4
sS'hello'
p4894
I1
sS'directors'
p4895
I1
sS'original'
p4896
I6
sS'quasi-homosexual'
p4897
I1
sS'all'
p4898
I63
sS'diss'
p4899
I1
sS'sci'
p4900
I1
sS'forget'
p4901
I2
sS'chinese'
p4902
I2
sS'caused'
p4903
I4
sS'lack'
p4904
I2
sS'follow'
p4905
I2
sS'liam'
p4906
I1
sS'children'
p4907
I3
sS'shattered'
p4908
I1
sS'killers'
p4909
I1
sS'tv'
p4910
I2
sS'laughing'
p4911
I1
sS'to'
p4912
I266
sS'tail'
p4913
I1
sS'th'
p4914
I1
sS'dirty'
p4915
I2
sS'enjoying'
p4916
I1
sS'paying'
p4917
I1
sS'woman'
p4918
I2
sS'worse'
p4919
I11
sS'song'
p4920
I2
sS'very'
p4921
I27
sS'horror'
p4922
I3
sS'plausibility'
p4923
I1
sS'overdone'
p4924
I2
sS'psychologist'
p4925
I1
sS'scout'
p4926
I1
sS'worst'
p4927
I35
sS'fall'
p4928
I2
sS'awful'
p4929
I10
sS'ticket'
p4930
I3
sS'difference'
p4931
I1
sS'--'
p4932
I1
sS'list'
p4933
I1
sS'joined'
p4934
I1
sS'large'
p4935
I2
sS'-1'
p4936
I1
sS'harry'
p4937
I2
sS'small'
p4938
I4
sS"i'll"
p4939
I4
sS'titled'
p4940
I2
sS'preposterous'
p4941
I1
sS'zero'
p4942
I2
sS'perspective'
p4943
I1
sS'bopper'
p4944
I1
sS'casual'
p4945
I1
sS'what'
p4946
I47
sS'post-walt'
p4947
I1
sS'improvement'
p4948
I1
sS'section'
p4949
I1
sS'cheesey'
p4950
I1
sS'public'
p4951
I1
sS'version'
p4952
I4
sS'issues'
p4953
I1
sS'learned'
p4954
I1
sS'guns'
p4955
I1
sS'edited'
p4956
I1
sS'certainly'
p4957
I4
sS'revenge'
p4958
I1
sS'hours'
p4959
I1
sS'bobbybo'
p4960
I1
sS'buzzing'
p4961
I1
sS'strong'
p4962
I1
sS'fatter'
p4963
I1
sS'bathtub'
p4964
I1
sS'disappointingly'
p4965
I1
sS'ahead'
p4966
I1
sS'jackie'
p4967
I5
sS'brutal'
p4968
I1
sS'amount'
p4969
I1
sS'base'
p4970
I1
sS'advertising'
p4971
I1
sS'published'
p4972
I1
sS'action'
p4973
I33
sS"would've"
p4974
I3
sS'beatle'
p4975
I1
sS'flash'
p4976
I1
sS'family'
p4977
I4
sS'damned'
p4978
I1
sS'suddenly'
p4979
I2
sS'vin'
p4980
I5
sS'put'
p4981
I2
sS'trained'
p4982
I1
sS"conclusion's"
p4983
I1
sS'chunks'
p4984
I1
sS'arrogance'
p4985
I1
sS'drippy'
p4986
I1
sS'globet'
p4987
I1
sS'eye'
p4988
I1
sS'takes'
p4989
I4
sS'two'
p4990
I12
sS'pearl'
p4991
I9
sS'sitter'
p4992
I1
sS'demeaned'
p4993
I1
sS'taken'
p4994
I1
sS'tacky'
p4995
I1
sS'denero'
p4996
I1
sS'pixar'
p4997
I1
sS'neverending'
p4998
I1
sS'flat'
p4999
I1
sS'wretched'
p5000
I2
sS'door'
p5001
I1
sS'knows'
p5002
I1
sS'company'
p5003
I2
sS'surprisingly'
p5004
I1
sS'excuse'
p5005
I7
sS'flag'
p5006
I1
sS'corleone'
p5007
I1
sS'stick'
p5008
I4
sS'mellow'
p5009
I1
sS'town'
p5010
I2
sS'none'
p5011
I1
sS'hour'
p5012
I5
sS'recall'
p5013
I3
sS'sucks'
p5014
I10
sS'3-d'
p5015
I1
sS'guards'
p5016
I1
sS'snipes'
p5017
I2
sS'learn'
p5018
I1
sS'knocked'
p5019
I1
sS'dec'
p5020
I1
sS'history'
p5021
I6
sS'beautiful'
p5022
I1
sS'compare'
p5023
I3
sS'embarrassing'
p5024
I2
sS'share'
p5025
I2
sS'states'
p5026
I1
sS'coltrane'
p5027
I1
sS'numbers'
p5028
I2
sS'sense'
p5029
I5
sS'disliked'
p5030
I1
sS'dress'
p5031
I1
sS'!'
p5032
I187
sS'huge'
p5033
I5
sS'needs'
p5034
I4
sS'court'
p5035
I1
sS'rather'
p5036
I4
sS'chops'
p5037
I1
sS'ledger'
p5038
I1
sS'stayed'
p5039
I2
sS'sigourney'
p5040
I1
sS'occasionally'
p5041
I1
sS'okay'
p5042
I6
sS'intended'
p5043
I1
sS'slow-mo'
p5044
I1
sS'fx'
p5045
I2
sS'advice'
p5046
I1
sS'triumphs'
p5047
I1
sS'tries'
p5048
I2
sS'blood'
p5049
I4
sS'coming'
p5050
I1
sS'fi'
p5051
I1
sS'capitalize'
p5052
I2
sS'a'
p5053
I325
sS'contrived'
p5054
I2
sS'short'
p5055
I3
sS'rediculous-'
p5056
I1
sS'merged'
p5057
I1
sS'rosebud'
p5058
I1
sS'perhaps'
p5059
I1
sS'eating'
p5060
I2
sS'playing'
p5061
I2
sS"that's"
p5062
I6
sS'chicks'
p5063
I1
sS'help'
p5064
I4
sS"don't"
p5065
I26
sS'september'
p5066
I1
sS'soon'
p5067
I1
sS'industrial'
p5068
I1
sS'through'
p5069
I9
sS'destruction'
p5070
I1
sS'hell'
p5071
I5
sS'sequels'
p5072
I2
sS'avenue'
p5073
I1
sS'its'
p5074
I15
sS'laced'
p5075
I1
sS'20'
p5076
I2
sS'squadroom'
p5077
I1
sS'actually'
p5078
I10
sS'cool'
p5079
I8
sS'might'
p5080
I5
sS'fool'
p5081
I1
sS'hurting'
p5082
I1
sS'good'
p5083
I55
sS'somebody'
p5084
I1
sS'calm'
p5085
I1
sS'ya'
p5086
I1
sS'subtitled'
p5087
I1
sS'unreal'
p5088
I1
sS'predator'
p5089
I2
sS'newsflash'
p5090
I1
sS"you've"
p5091
I2
sS'party'
p5092
I1
sS'foot'
p5093
I1
sS'animation'
p5094
I8
sS'sucked'
p5095
I6
sS'diary'
p5096
I1
sS'overused'
p5097
I1
sS'erection'
p5098
I1
sS'robbie'
p5099
I1
sS'imprisoned'
p5100
I1
sS'fantasy'
p5101
I1
sS'always'
p5102
I6
sS'overacted'
p5103
I1
sS'turns'
p5104
I2
sS'drips'
p5105
I1
sS'found'
p5106
I4
sS'shocking'
p5107
I1
sS"isn't"
p5108
I12
sS'everyone'
p5109
I1
sS'pirates'
p5110
I1
sS'house'
p5111
I1
sS'fish'
p5112
I1
sS'hard'
p5113
I5
sS'oppressed'
p5114
I1
sS'idea'
p5115
I1
sS'suprised'
p5116
I1
sS'bickering'
p5117
I1
sS'expect'
p5118
I5
sS'beyond'
p5119
I4
sS'event'
p5120
I1
sS'really'
p5121
I34
sS'missed'
p5122
I2
sS'robert'
p5123
I4
sS'since'
p5124
I7
sS'adhere'
p5125
I1
sS'half-way'
p5126
I1
sS'acting'
p5127
I20
sS'hill'
p5128
I1
sS'7'
p5129
I2
sS'print'
p5130
I1
sS'daddies'
p5131
I1
sS'tiresome'
p5132
I2
sS'ass'
p5133
I1
sS'pun'
p5134
I1
sS'conceived'
p5135
I1
sS'pathetic'
p5136
I5
sS'lawrence'
p5137
I2
sS'guess'
p5138
I1
sS'reason'
p5139
I5
sS'rated'
p5140
I4
sS'imagine'
p5141
I2
sS'ask'
p5142
I2
sS'laughable'
p5143
I3
sS'beginning'
p5144
I2
sS'loads'
p5145
I3
sS'heroic'
p5146
I1
sS'revolutionary'
p5147
I1
sS'driven'
p5148
I1
sS'terrible'
p5149
I14
sS'terribly'
p5150
I2
sS'american'
p5151
I8
sS'expecting'
p5152
I3
sS'w'
p5153
I1
sS'testament'
p5154
I1
sS'pilots'
p5155
I1
sS'fallen'
p5156
I1
sS'major'
p5157
I3
sS'horiible'
p5158
I1
sS'dont'
p5159
I9
sS'wilder'
p5160
I1
sS'feel'
p5161
I4
sS'god-awful'
p5162
I2
sS'number'
p5163
I2
sS'shameful'
p5164
I1
sS'feet'
p5165
I1
sS'done'
p5166
I7
sS'airborne'
p5167
I1
sS'miss'
p5168
I2
sS'stage'
p5169
I1
sS'bleeped'
p5170
I1
sS'story'
p5171
I23
sS'"'
p5172
I8
sS'jet'
p5173
I5
sS'script'
p5174
I8
sS'arlington'
p5175
I1
sS'least'
p5176
I11
sS'flimsy'
p5177
I1
sS'wonderful'
p5178
I1
sS'hundred'
p5179
I1
sS'listed'
p5180
I1
sS'exhaggerated'
p5181
I1
sS'relationship'
p5182
I1
sS'behind'
p5183
I1
sS'escalades'
p5184
I1
sS'park'
p5185
I1
sS'part'
p5186
I7
sS'cartridges'
p5187
I1
sS'crop'
p5188
I1
sS'believe'
p5189
I9
sS'unrealistic'
p5190
I1
sS'lug'
p5191
I1
sS'king'
p5192
I2
sS'kind'
p5193
I8
sS'b'
p5194
I2
sS'rebound'
p5195
I1
sS'performers'
p5196
I1
sS'gotten'
p5197
I1
sS'bruckheimer'
p5198
I1
sS"japan's"
p5199
I1
sS'youth'
p5200
I1
sS'damnit'
p5201
I1
sS'supposed'
p5202
I3
sS'insulted'
p5203
I5
sS'amazes'
p5204
I1
sS'hewitt'
p5205
I1
sS'dtv'
p5206
I1
sS"charlotte's"
p5207
I1
sS'jsut'
p5208
I1
sS'fights'
p5209
I1
sS'ages'
p5210
I1
sS'recital'
p5211
I1
sS'basicly'
p5212
I1
sS'previews'
p5213
I1
sS'mountain'
p5214
I4
sS'self'
p5215
I1
sS'officers'
p5216
I1
sS'cropped'
p5217
I1
sS'also'
p5218
I9
sS'without'
p5219
I2
sS'build'
p5220
I1
sS'added'
p5221
I1
sS'patterson'
p5222
I1
sS"li'l"
p5223
I1
sS'quote'
p5224
I1
sS'reach'
p5225
I1
sS'most'
p5226
I18
sS'virus'
p5227
I2
sS'charm'
p5228
I1
sS'eaten'
p5229
I2
sS'70'
p5230
I2
sS'nothing'
p5231
I18
sS'accepting'
p5232
I1
sS'wastes'
p5233
I1
sS'extremely'
p5234
I2
sS'screenwriter'
p5235
I1
sS'cinematograpy'
p5236
I1
sS'viciously'
p5237
I1
sS'performances'
p5238
I3
sS'clear'
p5239
I1
sS'popularity'
p5240
I1
sS"they'll"
p5241
I1
sS'storyline'
p5242
I4
sS'leota'
p5243
I1
sS'parody'
p5244
I1
sS'dragged'
p5245
I2
sS'ugh'
p5246
I2
sS'particularly'
p5247
I3
sS'phenomenon'
p5248
I1
sS'hovered'
p5249
I1
sS'celebrities'
p5250
I1
sS'top-notch'
p5251
I1
sS'bodybuilding'
p5252
I1
sS'goly'
p5253
I1
sS'fine'
p5254
I2
sS'find'
p5255
I7
sS'phooey'
p5256
I1
sS'giant'
p5257
I3
sS'tilly'
p5258
I1
sS'ruin'
p5259
I3
sS'writer'
p5260
I1
sS'grotesque'
p5261
I1
sS'ebert'
p5262
I1
sS'failed'
p5263
I1
sS'idiots'
p5264
I1
sS'military-type'
p5265
I1
sS'w-o-r-s-e'
p5266
I1
sS'pretty'
p5267
I6
sS"mom's"
p5268
I1
sS'villian'
p5269
I1
sS'his'
p5270
I19
sS'hit'
p5271
I4
sS'photographed'
p5272
I1
sS'tommorow'
p5273
I1
sS'banned'
p5274
I1
sS'trek'
p5275
I1
sS'cheaper'
p5276
I1
sS'whistle'
p5277
I1
sS'rest'
p5278
I2
sS'pretending'
p5279
I1
sS'during'
p5280
I7
sS'him'
p5281
I9
sS'dustin'
p5282
I1
sS'roles'
p5283
I2
sS'relize'
p5284
I1
sS'witches'
p5285
I1
sS'hype'
p5286
I2
sS'weaver'
p5287
I1
sS'saps'
p5288
I1
sS'set'
p5289
I2
sS'art'
p5290
I1
sS'cynical'
p5291
I1
sS'throwing'
p5292
I1
sS'intelligence'
p5293
I3
sS'sex'
p5294
I2
sS'lion'
p5295
I3
sS'defense'
p5296
I1
sS'dumb'
p5297
I7
sS'are'
p5298
I62
sS'ark'
p5299
I1
sS'#'
p5300
I2
sS'horrid'
p5301
I4
sS'movie'
p5302
I233
sS'wow'
p5303
I4
sS'please'
p5304
I5
sS"kid's"
p5305
I1
sS'woo'
p5306
I1
sS'probably'
p5307
I3
sS'nope'
p5308
I1
sS'recently'
p5309
I1
sS'missing'
p5310
I1
sS'pisses'
p5311
I1
sS'attention'
p5312
I1
sS'outfit'
p5313
I1
sS"should'nt"
p5314
I1
sS'premise'
p5315
I3
sS'genre'
p5316
I1
sS'prelude'
p5317
I1
sS"hoffman's"
p5318
I1
sS'both'
p5319
I7
sS'c'
p5320
I2
sS'toward'
p5321
I1
sS'last'
p5322
I3
sS"wouldn't"
p5323
I4
sS'barely'
p5324
I1
sS'minorities'
p5325
I3
sS'became'
p5326
I1
sS'alot'
p5327
I3
sS'forgotten'
p5328
I2
sS'whole'
p5329
I6
sS'finds'
p5330
I1
sS'load'
p5331
I1
sS'liked'
p5332
I5
sS'point'
p5333
I6
sS'reasons'
p5334
I2
sS'sweet'
p5335
I1
sS'harbour'
p5336
I1
sS'simply'
p5337
I3
sS'likes'
p5338
I1
sS'sing'
p5339
I3
sS'ravaged'
p5340
I1
sS'['
p5341
I1
sS'dams'
p5342
I1
sS'create'
p5343
I1
sS'politicak'
p5344
I1
sS'political'
p5345
I1
sS'due'
p5346
I1
sS'whom'
p5347
I1
sS'damn'
p5348
I5
sS'pg'
p5349
I1
sS'threaten'
p5350
I1
sS'wait'
p5351
I2
sS'caribeean'
p5352
I1
sS'empty'
p5353
I4
sS'4'
p5354
I5
sS'resting'
p5355
I1
sS'dialogue'
p5356
I5
sS'buck'
p5357
I2
sS'fire'
p5358
I2
sS'overstate'
p5359
I1
sS"what's"
p5360
I2
sS'crack'
p5361
I1
sS'precision'
p5362
I2
sS'else'
p5363
I4
sS'races'
p5364
I1
sS'awake'
p5365
I1
sS'unnecessarily'
p5366
I1
sS'pierce'
p5367
I3
sS'look'
p5368
I8
sS'frozen'
p5369
I1
sS'expanded'
p5370
I1
sS'budget'
p5371
I4
sS'institute'
p5372
I1
sS'while'
p5373
I10
sS'replaced'
p5374
I1
sS'fun'
p5375
I6
sS'animated'
p5376
I7
sS'robin'
p5377
I1
sS'hoping'
p5378
I2
sS'cents'
p5379
I1
sS'uninspired'
p5380
I1
sS'rip'
p5381
I1
sS'disappointing'
p5382
I1
sS'itself'
p5383
I4
sS'impersonate'
p5384
I1
sS'beautifully'
p5385
I1
sS'funny'
p5386
I9
sS'raiders'
p5387
I1
sS're-does'
p5388
I1
sS'anymore'
p5389
I3
sS'belong'
p5390
I1
sS'rules'
p5391
I1
sS'virtually'
p5392
I1
sS'cruelty'
p5393
I1
sS'neutron'
p5394
I1
sS'higher'
p5395
I1
sS'development'
p5396
I1
sS'literature'
p5397
I2
sS'ratings'
p5398
I1
sS'moment'
p5399
I1
sS'uses'
p5400
I1
sS'purpose'
p5401
I1
sS"might've"
p5402
I1
sS'infamous'
p5403
I1
sS'early'
p5404
I1
sS'overated'
p5405
I1
sS"people'"
p5406
I1
sS'bonds'
p5407
I1
sS'older'
p5408
I1
sS'chickens'
p5409
I1
sS'spent'
p5410
I1
sS'obviously'
p5411
I3
sS'person'
p5412
I3
sS'edge'
p5413
I1
sS'swiss'
p5414
I1
sS'organization'
p5415
I1
sS'chemistry'
p5416
I4
sS'stating'
p5417
I1
sS'romanticize'
p5418
I1
sS'know'
p5419
I18
sS'chore'
p5420
I1
sS'abilities'
p5421
I2
sS'hercules'
p5422
I1
sS'camouflage'
p5423
I1
sS'rambo'
p5424
I1
sS'pryce'
p5425
I1
sS'retirement'
p5426
I1
sS'$'
p5427
I4
sS'k2'
p5428
I2
sS'hated'
p5429
I8
sS'parents'
p5430
I3
sS'presidents'
p5431
I1
sS'surprised'
p5432
I3
sS'lacking'
p5433
I1
sS'big'
p5434
I11
sS'couple'
p5435
I4
sS'puh-leeze'
p5436
I1
sS'game'
p5437
I1
sS'damage'
p5438
I2
sS'bit'
p5439
I3
sS"myers'"
p5440
I1
sS'renegade'
p5441
I1
sS'lost'
p5442
I3
sS"children's"
p5443
I5
sS'follows'
p5444
I1
sS'popular'
p5445
I2
sS'coorperation'
p5446
I1
sS'partying'
p5447
I1
sS'often'
p5448
I1
sS'absolutely'
p5449
I2
sS'goddamn'
p5450
I1
sS'fathers'
p5451
I1
sS'some'
p5452
I31
sS'back'
p5453
I7
sS'understood'
p5454
I1
sS'experienced'
p5455
I1
sS'examples'
p5456
I1
sS'mirror'
p5457
I1
sS'insensitivity'
p5458
I1
sS'pale'
p5459
I1
sS'delivered'
p5460
I1
sS'thrilled'
p5461
I1
sS'prom'
p5462
I1
sS'epic'
p5463
I1
sS't'
p5464
I4
sS'cgi'
p5465
I2
sS'be'
p5466
I64
sS'camerawork'
p5467
I1
sS'300'
p5468
I1
sS'jumps'
p5469
I1
sS'kelsey'
p5470
I1
sS'costumes'
p5471
I2
sS'furiouser'
p5472
I1
sS'nowhere'
p5473
I1
sS'become'
p5474
I2
sS'crap'
p5475
I10
sS'carol'
p5476
I1
sS'raider'
p5477
I1
sS'by'
p5478
I33
sS'anything'
p5479
I13
sS'connery'
p5480
I1
sS'drama'
p5481
I5
sS'unintentional'
p5482
I1
sS"capra's"
p5483
I1
sS'classics'
p5484
I1
sS'shiny'
p5485
I1
sS"b'day"
p5486
I1
sS'seeing'
p5487
I3
sS'jimmy'
p5488
I1
sS"'cause"
p5489
I1
sS'garbage'
p5490
I9
sS'aliens'
p5491
I2
sS'nonsense'
p5492
I1
sS'taillights'
p5493
I1
sS'steven'
p5494
I3
sS'lesson'
p5495
I1
sS'impressed'
p5496
I1
sS'dismal'
p5497
I1
sS'plots'
p5498
I2
sS'fast'
p5499
I3
sS'doubt'
p5500
I3
sS'grave'
p5501
I1
sS'bored'
p5502
I2
sS'opens'
p5503
I1
sS'gratutious'
p5504
I2
sS'himself'
p5505
I4
sS'poster'
p5506
I4
sS'murphy'
p5507
I1
sS'boys'
p5508
I3
sS'line'
p5509
I4
sS'dull'
p5510
I8
sS'watership'
p5511
I1
sS'directed'
p5512
I2
sS'redeemed'
p5513
I1
sS'grinch'
p5514
I1
sS"hasn't"
p5515
I2
sS'us'
p5516
I4
sS'planet'
p5517
I1
sS"tomorrow's"
p5518
I1
sS'disgustingly'
p5519
I1
sS'planes'
p5520
I1
sS'highlight'
p5521
I2
sS'muniz'
p5522
I1
sS'called'
p5523
I3
sS'x-ray'
p5524
I1
sS'constant'
p5525
I1
sS'adults'
p5526
I2
sS'chan'
p5527
I2
sS'single'
p5528
I1
sS'warning'
p5529
I1
sS'home'
p5530
I2
sS'evocative'
p5531
I1
sS'cotton'
p5532
I1
sS'peach'
p5533
I1
sS'backs'
p5534
I1
sS'redeeming'
p5535
I1
sS'rewriting'
p5536
I1
sS'-the'
p5537
I3
sS'points'
p5538
I1
sS'actors'
p5539
I18
sS'disappointd'
p5540
I1
sS"'grinch'"
p5541
I1
sS'eerily'
p5542
I1
sS'nice'
p5543
I3
sS'elements'
p5544
I1
sS'wrongly'
p5545
I1
sS'crouching'
p5546
I1
sS'understatement'
p5547
I1
sS'helpful'
p5548
I1
sS'helping'
p5549
I1
sS'drag'
p5550
I1
sS'allowing'
p5551
I1
sS'utterly'
p5552
I2
sS'leaf'
p5553
I1
sS'ago'
p5554
I2
sS'fighter'
p5555
I1
sS'disbelief'
p5556
I1
sS'vehicles'
p5557
I1
sS'holes'
p5558
I1
sS'walked'
p5559
I2
sS'appalling'
p5560
I2
sS'depth'
p5561
I1
sS'carrying'
p5562
I1
sS'far'
p5563
I7
sS"she's"
p5564
I1
sS'having'
p5565
I3
sS'once'
p5566
I5
sS'results'
p5567
I1
sS'nuns'
p5568
I1
sS'enjoyable'
p5569
I2
sS'wolverines'
p5570
I1
sS"wrasslin'"
p5571
I1
sS'go'
p5572
I15
sS'churned'
p5573
I1
sS'seemed'
p5574
I2
sS'similar'
p5575
I1
sS'disposal'
p5576
I1
sS'concerned'
p5577
I1
sS'young'
p5578
I4
sS'suits'
p5579
I1
sS'lower'
p5580
I1
sS'internment'
p5581
I1
sS'resources'
p5582
I1
sS'wished'
p5583
I1
sS'harold-insane'
p5584
I1
sS'continues'
p5585
I1
sS'conditions'
p5586
I1
sS'well-done'
p5587
I1
sS'putting'
p5588
I2
sS'mixing'
p5589
I1
sS'drinking'
p5590
I1
sS"'how"
p5591
I1
sS'escepially'
p5592
I1
sS'entire'
p5593
I7
sS'magic'
p5594
I1
sS'stiff'
p5595
I1
sS'harbor'
p5596
I5
sS'button'
p5597
I1
sS'shock'
p5598
I1
sS'michael'
p5599
I2
sS'ryan'
p5600
I1
sS'try'
p5601
I2
sS'threat'
p5602
I1
sS'skipped'
p5603
I1
sS'race'
p5604
I3
sS'villians'
p5605
I1
sS'trite'
p5606
I1
sS'havent'
p5607
I1
sS"harbor's"
p5608
I1
sS'clay-animated'
p5609
I1
sS'booty'
p5610
I1
sS"you'd"
p5611
I3
sS'visuals'
p5612
I1
sS'slow-paced'
p5613
I1
sS'scientist'
p5614
I2
sS'boots'
p5615
I1
sS'jump'
p5616
I1
sS'video'
p5617
I2
sS'self-indulgent'
p5618
I1
sS'plays'
p5619
I3
sS'rate'
p5620
I1
sS'outsmart'
p5621
I1
sS'giving'
p5622
I1
sS'fat'
p5623
I2
sS'bergman'
p5624
I1
sS"man's"
p5625
I1
sS'rotten'
p5626
I1
sS'indian'
p5627
I1
sS"director's"
p5628
I1
sS'capital'
p5629
I1
sS'values'
p5630
I1
sS';'
p5631
I3
sS'bird'
p5632
I1
sS'3d'
p5633
I1
sS'downright'
p5634
I1
sS'led'
p5635
I1
sS'degree'
p5636
I1
sS'following'
p5637
I1
sS'let'
p5638
I3
sS'sexy'
p5639
I2
sS'irritating'
p5640
I2
sS'great'
p5641
I16
sS'talent'
p5642
I3
sS'cera'
p5643
I1
sS'involved'
p5644
I1
sS'30'
p5645
I1
sS'titanic'
p5646
I1
sS'leaving'
p5647
I1
sS"weren't"
p5648
I2
sS'opinion'
p5649
I3
sS'gene'
p5650
I1
sS'makes'
p5651
I17
sS'maker'
p5652
I1
sS"ocean's"
p5653
I1
sS'named'
p5654
I1
sS'danger'
p5655
I1
sS'win'
p5656
I1
sS'manage'
p5657
I2
sS'private'
p5658
I1
sS'wit'
p5659
I2
sS'names'
p5660
I1
sS'dumbest'
p5661
I1
sS'singing'
p5662
I2
sS'standing'
p5663
I2
sS'use'
p5664
I5
sS'from'
p5665
I27
sS'usa'
p5666
I1
sS'&'
p5667
I2
sS'beefed'
p5668
I1
sS'druggies'
p5669
I1
sS'next'
p5670
I6
sS'few'
p5671
I7
sS'camera'
p5672
I1
sS'themselves'
p5673
I3
sS'jonathan'
p5674
I1
sS'historically'
p5675
I1
sS'aformentioned'
p5676
I1
sS'sort'
p5677
I1
sS'infamy'
p5678
I1
sS'started'
p5679
I3
sS'dealings'
p5680
I1
sS'train'
p5681
I1
sS'senario'
p5682
I1
sS'agent'
p5683
I1
sS'ashamed'
p5684
I5
sS"'pirates'"
p5685
I1
sS'baby'
p5686
I1
sS'snob-i'
p5687
I1
sS'pocahontas'
p5688
I1
sS'women'
p5689
I5
sS'majority'
p5690
I1
sS'animals'
p5691
I1
sS'f'
p5692
I1
sS'this'
p5693
I276
sS'ride'
p5694
I2
sS'unknowns'
p5695
I1
sS'anywhere'
p5696
I1
sS'obvious'
p5697
I3
sS'thin'
p5698
I2
sS'island'
p5699
I1
sS'meet'
p5700
I1
sS'didnt'
p5701
I3
sS'scatter'
p5702
I1
sS'control'
p5703
I1
sS'yu-gi-oh'
p5704
I2
sS'pieces'
p5705
I2
sS'high'
p5706
I3
sS'something'
p5707
I8
sS'bastardization'
p5708
I1
sS'blvd'
p5709
I1
sS'triangle'
p5710
I4
sS'native'
p5711
I2
sS'united'
p5712
I1
sS'surrounded'
p5713
I1
sS'lame'
p5714
I7
sS'holds'
p5715
I2
sS'animal'
p5716
I2
sS'instead'
p5717
I7
sS'comedy'
p5718
I5
sS'intelligent'
p5719
I2
sS'clichee'
p5720
I1
sS'stop'
p5721
I2
sS'pigs'
p5722
I1
sS"they'd"
p5723
I1
sS'sit'
p5724
I1
sS'lines'
p5725
I1
sS'civics'
p5726
I1
sS'honestly'
p5727
I2
sS'allow'
p5728
I1
sS'jolie'
p5729
I2
sS'longest'
p5730
I1
sS'cinamatic'
p5731
I1
sS'producer'
p5732
I2
sS'produces'
p5733
I1
sS'refrences'
p5734
I1
sS'ricer'
p5735
I1
sS'move'
p5736
I4
sS'produced'
p5737
I1
sS'including'
p5738
I1
sS'motorcycle'
p5739
I1
sS'cruise'
p5740
I5
sS'mentioned'
p5741
I1
sS'predictible'
p5742
I1
sS'bunch'
p5743
I5
sS'perfect'
p5744
I1
sS'superior'
p5745
I1
sS'hilary'
p5746
I1
sS'bridget'
p5747
I1
sS'la'
p5748
I1
sS'lo'
p5749
I1
sS'll'
p5750
I1
sS'affleck'
p5751
I1
sS'li'
p5752
I5
sS'heroism'
p5753
I1
sS'pure'
p5754
I2
sS'material'
p5755
I2
sS'wows'
p5756
I1
sS'earn'
p5757
I1
sS'snake'
p5758
I6
sS'kiss'
p5759
I1
sS'hands'
p5760
I1
sS'cage'
p5761
I1
sS'day'
p5762
I9
sS'stunts'
p5763
I2
sS"lamborghini's"
p5764
I1
sS'e-v-e-r'
p5765
I1
sS'bette'
p5766
I1
sS'eben'
p5767
I1
sS'blazing'
p5768
I1
sS'transmitted'
p5769
I1
sS'saltzman'
p5770
I1
sS'uninteresting'
p5771
I1
sS'studios'
p5772
I3
sS'doing'
p5773
I5
sS'adventure'
p5774
I1
sS'product'
p5775
I1
sS'surfboards'
p5776
I1
sS'89'
p5777
I1
sS'thirteen'
p5778
I1
sS'our'
p5779
I6
sS'special'
p5780
I8
sS'out'
p5781
I39
sS'category'
p5782
I1
sS'matt'
p5783
I1
sS"'"
p5784
I1
sS'entertainment'
p5785
I3
sS'armor'
p5786
I1
sS'rep'
p5787
I1
sS'monumental'
p5788
I1
sS'favours'
p5789
I1
sS'hilarious'
p5790
I2
sS'disapointed'
p5791
I1
sS'cause'
p5792
I1
sS'red'
p5793
I1
sS'shut'
p5794
I1
sS'trashy'
p5795
I1
sS'frank'
p5796
I1
sS'pacifist'
p5797
I1
sS'payroll'
p5798
I1
sS'coen'
p5799
I1
sS'fourteen'
p5800
I1
sS'completely'
p5801
I2
sS'hogwarts'
p5802
I1
sS'scary'
p5803
I1
sS'age-old'
p5804
I1
sS'yard'
p5805
I1
sS'hostile'
p5806
I1
sS'g'
p5807
I1
sS'could'
p5808
I19
sS'spongebob'
p5809
I1
sS'times'
p5810
I5
sS'shred'
p5811
I1
sS'v8s'
p5812
I1
sS'davis'
p5813
I1
sS'ears'
p5814
I1
sS'shrek'
p5815
I3
sS'south'
p5816
I3
sS'mad'
p5817
I1
sS'equates'
p5818
I1
sS'blown'
p5819
I1
sS'yells'
p5820
I1
sS'scene'
p5821
I9
sS'jesus'
p5822
I1
sS'patriotism'
p5823
I1
sS'blows'
p5824
I2
sS'noticed'
p5825
I1
sS'quality'
p5826
I2
sS'heroes'
p5827
I1
sS"'bout"
p5828
I1
sS"doesn't"
p5829
I5
sS'ancient'
p5830
I1
sS'sadly'
p5831
I1
sS'unknown'
p5832
I1
sS'tyrese'
p5833
I1
sS'system'
p5834
I1
sS'shockingly'
p5835
I1
sS'their'
p5836
I21
sS'attack'
p5837
I5
sS'mindless'
p5838
I3
sS'wrapped'
p5839
I1
sS'harmon'
p5840
I1
sS'painful'
p5841
I2
sS'plight'
p5842
I2
sS'accompany'
p5843
I1
sS'lot'
p5844
I7
sS'academy'
p5845
I1
sS'exactly'
p5846
I2
sS'depressing'
p5847
I1
sS'elite'
p5848
I1
sS'blind'
p5849
I1
sS'waist'
p5850
I1
sS'steel'
p5851
I1
sS'loved'
p5852
I1
sS'ben'
p5853
I3
sS'behinds'
p5854
I1
sS'boring'
p5855
I31
sS'bother'
p5856
I3
sS'see'
p5857
I36
sS"'lots"
p5858
I1
sS'roberts'
p5859
I1
sS'appealing'
p5860
I1
sS'lover'
p5861
I2
sS'bet'
p5862
I2
sS'result'
p5863
I1
sS'enforced'
p5864
I2
sS'viewer'
p5865
I1
sS'partnership'
p5866
I1
sS'disapointment'
p5867
I2
sS'have'
p5868
I70
sS'need'
p5869
I9
sS'blockbuster'
p5870
I1
sS'apparently'
p5871
I3
sS'clearly'
p5872
I1
sS'angie'
p5873
I1
sS'allergies'
p5874
I1
sS'probly'
p5875
I1
sS'able'
p5876
I2
sS'for'
p5877
I104
sS'schwartzaneggar'
p5878
I1
sS'sh'
p5879
I1
sS'horrendouz'
p5880
I1
sS'which'
p5881
I11
sS'martha'
p5882
I1
sS'accuracy'
p5883
I2
sS'savages'
p5884
I2
sS'unless'
p5885
I4
sS'combat'
p5886
I1
sS'who'
p5887
I26
sS'tissue-thin'
p5888
I1
sS'severe'
p5889
I1
sS'disater'
p5890
I1
sS'awe'
p5891
I1
sS'why'
p5892
I16
sS'police'
p5893
I1
sS'so-called'
p5894
I1
sS'quasi-ranger'
p5895
I1
sS'lame-o'
p5896
I1
sS'eject'
p5897
I1
sS'seagal'
p5898
I1
sS'downbeat'
p5899
I1
sS'nobody'
p5900
I1
sS'atwood'
p5901
I1
sS'face'
p5902
I4
sS'looked'
p5903
I5
sS"you'll"
p5904
I2
sS'm-o-v-i-e'
p5905
I1
sS'fact'
p5906
I7
sS'impression'
p5907
I2
sS'atmosphere'
p5908
I1
sS'cute'
p5909
I2
sS'anyway'
p5910
I5
sS'bring'
p5911
I3
sS'shlock-'
p5912
I1
sS'dorothy'
p5913
I1
sS'utter'
p5914
I1
sS'chicken'
p5915
I1
sS'darkest'
p5916
I1
sS'staff'
p5917
I1
sS'loveable'
p5918
I1
sS'filmed'
p5919
I2
sS'based'
p5920
I2
sS'unfinished'
p5921
I1
sS'tire'
p5922
I1
sS'earned'
p5923
I1
sS'('
p5924
I47
sS'fans'
p5925
I4
sS'should'
p5926
I22
sS"there's"
p5927
I6
sS'tape'
p5928
I1
sS'communist'
p5929
I1
sS'hope'
p5930
I7
sS'cinematography'
p5931
I2
sS'cube'
p5932
I1
sS'watching'
p5933
I8
sS'beat'
p5934
I2
sS"trips'"
p5935
I1
sS'photography'
p5936
I1
sS'flirting'
p5937
I1
sS'overall'
p5938
I1
sS'bean'
p5939
I1
sS'ones'
p5940
I2
sS'words'
p5941
I9
sS'richards'
p5942
I1
sS'dodgy'
p5943
I1
sS'routine'
p5944
I1
sS'endless'
p5945
I1
sS'travisty'
p5946
I1
sS'glory'
p5947
I1
sS'ended'
p5948
I5
sS'h'
p5949
I1
sS'stuff'
p5950
I5
sS'she'
p5951
I11
sS'tunes'
p5952
I1
sS'ohio'
p5953
I1
sS"control'"
p5954
I1
sS'gibson'
p5955
I1
sS'looks'
p5956
I3
sS"gilligan's"
p5957
I1
sS'j'
p5958
I1
sS'heathens'
p5959
I1
sS'national'
p5960
I3
sS'pitch'
p5961
I1
sS'war-loving'
p5962
I1
sS'operates'
p5963
I1
sS'legacy'
p5964
I1
sS'schlockfests'
p5965
I1
sS'wonka'
p5966
I1
sS'wire'
p5967
I1
sS'superhero'
p5968
I1
sS'teapots'
p5969
I1
sS'insulting'
p5970
I1
sS'nuclear'
p5971
I1
sS"takin'"
p5972
I1
sS'horribly'
p5973
I2
sS'below'
p5974
I1
sS'superb'
p5975
I1
sS'written'
p5976
I2
sS'horrible'
p5977
I14
sS'crude'
p5978
I3
sS'flicks'
p5979
I4
sS'badger'
p5980
I1
sS'pants'
p5981
I2
sS'george'
p5982
I1
sS'helicopters'
p5983
I1
sS'rescuers'
p5984
I1
sS'embarrassment'
p5985
I1
sS'job'
p5986
I1
sS'key'
p5987
I1
sS'rugrats'
p5988
I2
sS'harlin'
p5989
I1
sS'legit'
p5990
I1
sS'voight'
p5991
I2
sS'grass'
p5992
I1
sS'career'
p5993
I3
sS'joke'
p5994
I1
sS'taking'
p5995
I2
sS'goldie'
p5996
I1
sS'etc'
p5997
I5
sS'admit'
p5998
I1
sS'nitro'
p5999
I1
sS"wallet's"
p6000
I1
sS'otherwise'
p6001
I3
sS"airplane's"
p6002
I1
sS'walk'
p6003
I2
sS'walt'
p6004
I2
sS'franchise'
p6005
I2
sS"goodman's"
p6006
I1
sS'laugh'
p6007
I1
sS'sequences'
p6008
I1
sS'respect'
p6009
I4
sS'willy'
p6010
I1
sS'quit'
p6011
I1
sS'addition'
p6012
I1
sS"it's"
p6013
I27
sS'gratuitous'
p6014
I1
sS'copies'
p6015
I1
sS'shame'
p6016
I1
sS'ah'
p6017
I2
sS'waste'
p6018
I8
sS"it'd"
p6019
I1
sS'mike'
p6020
I3
sS'renny'
p6021
I1
sS'stationed'
p6022
I1
sS'painted'
p6023
I1
sS'deer'
p6024
I2
sS'jaded'
p6025
I1
sS'protect'
p6026
I2
sS'crappy'
p6027
I1
sS'guerrillas'
p6028
I1
sS'finished'
p6029
I2
sS'reviewers'
p6030
I1
sS'angles'
p6031
I1
sS'bull'
p6032
I1
sS'an'
p6033
I40
sS'present'
p6034
I2
sS'factual'
p6035
I1
sS'unlike'
p6036
I1
sS'vapid'
p6037
I2
sS'plain'
p6038
I3
sS'pretentious'
p6039
I2
sS'will'
p6040
I13
sS'stunning'
p6041
I1
sS'tohught'
p6042
I1
sS"nobody's"
p6043
I1
sS'almost'
p6044
I6
sS'fonda'
p6045
I1
sS'squid'
p6046
I1
sS'site'
p6047
I1
sS'pitt'
p6048
I1
sS'audiences'
p6049
I1
sS'demanded'
p6050
I1
sS'snuck'
p6051
I1
sS'partner'
p6052
I1
sS'ransom'
p6053
I1
sS'capture'
p6054
I1
sS')'
p6055
I50
sS'radiation'
p6056
I1
sS'cross'
p6057
I2
sS'romance'
p6058
I6
sS'parts'
p6059
I1
sS'units'
p6060
I2
sS'fantasized'
p6061
I1
sS'gets'
p6062
I7
sS'injured'
p6063
I1
sS'annie'
p6064
I3
sS'novels'
p6065
I2
sS'onscreen'
p6066
I1
sS'definately'
p6067
I1
sS'upon'
p6068
I2
sS'effect'
p6069
I1
sS'romeo'
p6070
I1
sS'beast'
p6071
I2
sS'schartzeneger'
p6072
I1
sS'broccoli'
p6073
I1
sS'keep'
p6074
I6
sS'off'
p6075
I14
sS'center'
p6076
I1
sS'i'
p6077
I266
sS'weapon'
p6078
I2
sS'well'
p6079
I7
sS'fighting'
p6080
I2
sS'thought'
p6081
I15
sS'english'
p6082
I1
sS'alec'
p6083
I1
sS'usual'
p6084
I2
sS'taller'
p6085
I1
sS'cried'
p6086
I1
sS'less'
p6087
I2
sS'moments'
p6088
I2
sS"roberts'"
p6089
I1
sS"kids'"
p6090
I1
sS'domestic'
p6091
I1
sS'mistakes'
p6092
I1
sS'nikelodeon'
p6093
I1
sS'tcb'
p6094
I1
sS'rescue'
p6095
I1
sS'web'
p6096
I1
sS'field'
p6097
I1
sS'guts'
p6098
I1
sS'patricia'
p6099
I1
sS'add'
p6100
I1
sS'other'
p6101
I12
sS'citizen'
p6102
I1
sS'niro'
p6103
I1
sS'warrant'
p6104
I1
sS'smart'
p6105
I1
sS'libertys'
p6106
I1
sS'government'
p6107
I1
sS'checking'
p6108
I1
sS'smithsonian'
p6109
I1
sS"shrek's"
p6110
I1
sS'five'
p6111
I1
sS'whatever'
p6112
I3
sS'unseen'
p6113
I2
sS'desperately'
p6114
I2
sS'fools'
p6115
I1
sS'excremental'
p6116
I1
sS'puppy'
p6117
I1
sS'like'
p6118
I64
sS'success'
p6119
I2
sS'mother-in-law'
p6120
I1
sS'loses'
p6121
I2
sS'martin'
p6122
I4
sS'chick'
p6123
I1
sS'starred'
p6124
I1
sS'works'
p6125
I1
sS'page'
p6126
I1
sS'turd'
p6127
I1
sS'climbers'
p6128
I1
sS'because'
p6129
I22
sS'sequence'
p6130
I1
sS'bleedin'
p6131
I1
sS'hair'
p6132
I3
sS'thier'
p6133
I1
sS'peter'
p6134
I2
sS'unfunny'
p6135
I3
sS'lead'
p6136
I3
sS'avoid'
p6137
I8
sS'prdictable'
p6138
I1
sS'does'
p6139
I9
sS'wendy'
p6140
I1
sS'assuming'
p6141
I1
sS'leader'
p6142
I1
sS'?'
p6143
I61
sS'ripped'
p6144
I1
sS'inaccurate'
p6145
I1
sS'slight'
p6146
I2
sS'acronym'
p6147
I1
sS'slut'
p6148
I1
sS'worthy'
p6149
I1
sS'hiding'
p6150
I1
sS'about'
p6151
I45
sS'actual'
p6152
I2
sS'carried'
p6153
I1
sS'getting'
p6154
I2
sS'universe'
p6155
I1
sS'chance'
p6156
I1
sS'madame'
p6157
I1
sS'tomb'
p6158
I1
sS'introduced'
p6159
I1
sS'heroics'
p6160
I1
sS'own'
p6161
I7
sS'childrens'
p6162
I2
sS'doesnt'
p6163
I1
sS'erect'
p6164
I1
sS'female'
p6165
I2
sS'buick'
p6166
I1
sS'.'
p6167
I950
sS'pointless'
p6168
I3
sS'mere'
p6169
I2
sS'doubtless'
p6170
I2
sS'epitimy'
p6171
I1
sS'rushed'
p6172
I1
sS'*'
p6173
I9
sS'kidding'
p6174
I1
sS'posters'
p6175
I1
sS'biggest'
p6176
I3
sS'poppins'
p6177
I1
sS'buy'
p6178
I1
sS"i've"
p6179
I15
sS'brand'
p6180
I1
sS'sequel'
p6181
I4
sS'but'
p6182
I87
sS'filmgoers'
p6183
I1
sS'plague'
p6184
I1
sS'bul'
p6185
I1
sS'bum'
p6186
I1
sS'delivers'
p6187
I1
sS'ha'
p6188
I2
sS'bug'
p6189
I1
sS'witness'
p6190
I1
sS'he'
p6191
I34
sS'made'
p6192
I24
sS'places'
p6193
I2
sS'whether'
p6194
I2
sS'wish'
p6195
I2
sS'anacondas'
p6196
I1
sS'excitement'
p6197
I1
sS'mouseketeer'
p6198
I1
sS'books'
p6199
I6
sS'monument'
p6200
I1
sS'dmx'
p6201
I3
sS'piece'
p6202
I7
sS'minutes'
p6203
I12
sS'bearing'
p6204
I1
sS'horrific'
p6205
I1
sS'nurses'
p6206
I1
sS'recognize'
p6207
I1
sS'universal'
p6208
I1
sS"'cat"
p6209
I1
sS'unwatchable'
p6210
I2
sS'guiltier'
p6211
I1
sS'girl'
p6212
I3
sS'compared'
p6213
I1
sS'incredible'
p6214
I1
sS'dressed'
p6215
I1
sS'45'
p6216
I1
sS'offensive'
p6217
I4
sS'detail'
p6218
I1
sS'ludicris'
p6219
I1
sS'drugs'
p6220
I1
sS'book'
p6221
I17
sS'headmistress'
p6222
I1
sS'details'
p6223
I2
sS'sick'
p6224
I7
sS'martial'
p6225
I1
sS'star'
p6226
I4
sS'oppression'
p6227
I1
sS'putrid'
p6228
I1
sS'stay'
p6229
I2
sS'inacurate'
p6230
I1
sS'pseudo-intellectual'
p6231
I1
sS'concur'
p6232
I1
sS'friends'
p6233
I2
sS'vein'
p6234
I1
sS'ghost'
p6235
I1
sS'sentiment'
p6236
I1
sS'insipid'
p6237
I1
sS'ranks'
p6238
I1
sS"spielberg's"
p6239
I1
sS'compete'
p6240
I1
sS'richardson'
p6241
I1
saI365
aI302
aI21520
aI14337
a.